400ddfbc:	0a8136        	entry	a1, 0x540
400ddfbf:	cb4181        	l32r	a8, 400d0cc4 <_stext+0xca4> (3f428260 <_ZN6tflite16kConvInputTensorE>)
400ddfc2:	24a442        	movi	a4, 0x424
400ddfc5:	441a      	add.n	a4, a4, a1
400ddfc7:	03bd      	mov.n	a11, a3
400ddfc9:	02ad      	mov.n	a10, a2
400ddfcb:	08c8      	l32i.n	a12, a8, 0
400ddfcd:	24a462        	movi	a6, 0x424
400ddfd0:	661a      	add.n	a6, a6, a1
400ddfd2:	0429      	s32i.n	a2, a4, 0
400ddfd4:	07b525        	call8	400e5b28 <_ZN6tflite5micro12GetEvalInputEPK13TfLiteContextPK10TfLiteNodei>
400ddfd7:	20a482        	movi	a8, 0x420
400ddfda:	0a5d      	mov.n	a5, a10
400ddfdc:	881a      	add.n	a8, a8, a1
400ddfde:	0859      	s32i.n	a5, a8, 0
400ddfe0:	03bd      	mov.n	a11, a3
400ddfe2:	034d      	mov.n	a4, a3
400ddfe4:	cb3a81        	l32r	a8, 400d0ccc <_stext+0xcac> (3f42825c <_ZN6tflite18kConvWeightsTensorE>)
400ddfe7:	06a8      	l32i.n	a10, a6, 0
400ddfe9:	08c8      	l32i.n	a12, a8, 0
400ddfeb:	07b3e5        	call8	400e5b28 <_ZN6tflite5micro12GetEvalInputEPK13TfLiteContextPK10TfLiteNodei>
400ddfee:	0a7d      	mov.n	a7, a10
400ddff0:	0338      	l32i.n	a3, a3, 0
400ddff2:	339c      	beqz.n	a3, 400de009 <_ZN6tflite12_GLOBAL__N_1L4EvalEP13TfLiteContextP10TfLiteNode+0x4d>
400ddff4:	0388      	l32i.n	a8, a3, 0
400ddff6:	030c      	movi.n	a3, 0
400ddff8:	0d3866        	bnei	a8, 3, 400de009 <_ZN6tflite12_GLOBAL__N_1L4EvalEP13TfLiteContextP10TfLiteNode+0x4d>
400ddffb:	04bd      	mov.n	a11, a4
400ddffd:	cb4081        	l32r	a8, 400d0d00 <_stext+0xce0> (3f428258 <_ZN6tflite15kConvBiasTensorE>)
400de000:	06a8      	l32i.n	a10, a6, 0
400de002:	08c8      	l32i.n	a12, a8, 0
400de004:	07b225        	call8	400e5b28 <_ZN6tflite5micro12GetEvalInputEPK13TfLiteContextPK10TfLiteNodei>
400de007:	0a3d      	mov.n	a3, a10
400de009:	24a4c2        	movi	a12, 0x424
400de00c:	cb2a81        	l32r	a8, 400d0cb4 <_stext+0xc94> (3f428254 <_ZN6tflite17kConvOutputTensorE>)
400de00f:	cc1a      	add.n	a12, a12, a1
400de011:	04bd      	mov.n	a11, a4
400de013:	0ca8      	l32i.n	a10, a12, 0
400de015:	08c8      	l32i.n	a12, a8, 0
400de017:	07b4e5        	call8	400e5b64 <_ZN6tflite5micro13GetEvalOutputEPK13TfLiteContextPK10TfLiteNodei>
400de01a:	0a6d      	mov.n	a6, a10
400de01c:	44d8      	l32i.n	a13, a4, 16
400de01e:	4dcc      	bnez.n	a13, 400de026 <_ZN6tflite12_GLOBAL__N_1L4EvalEP13TfLiteContextP10TfLiteNode+0x6a>
400de020:	201110        	or	a1, a1, a1
400de023:	b0b925        	call8	4008ebb4 <abort>
400de026:	3458      	l32i.n	a5, a4, 12
400de028:	ff4516        	beqz	a5, 400de020 <_ZN6tflite12_GLOBAL__N_1L4EvalEP13TfLiteContextP10TfLiteNode+0x64>
400de02b:	18a5e2        	movi	a14, 0x518
400de02e:	ee1a      	add.n	a14, a14, a1
400de030:	0ed9      	s32i.n	a13, a14, 0
400de032:	a4f725        	call8	40082fa4 <esp_timer_get_time>
400de035:	20a4f2        	movi	a15, 0x420
400de038:	ff1a      	add.n	a15, a15, a1
400de03a:	0ca542        	movi	a4, 0x50c
400de03d:	0ff8      	l32i.n	a15, a15, 0
400de03f:	441a      	add.n	a4, a4, a1
400de041:	10a582        	movi	a8, 0x510
400de044:	881a      	add.n	a8, a8, a1
400de046:	04a9      	s32i.n	a10, a4, 0
400de048:	18a5a2        	movi	a10, 0x518
400de04b:	aa1a      	add.n	a10, a10, a1
400de04d:	2f98      	l32i.n	a9, a15, 8
400de04f:	08b9      	s32i.n	a11, a8, 0
400de051:	0ad8      	l32i.n	a13, a10, 0
400de053:	027966        	bnei	a9, 7, 400de059 <_ZN6tflite12_GLOBAL__N_1L4EvalEP13TfLiteContextP10TfLiteNode+0x9d>
400de056:	01aa86        	j	400de704 <_ZN6tflite12_GLOBAL__N_1L4EvalEP13TfLiteContextP10TfLiteNode+0x748>
400de059:	9a0c      	movi.n	a10, 9
400de05b:	0299a7        	bne	a9, a10, 400de061 <_ZN6tflite12_GLOBAL__N_1L4EvalEP13TfLiteContextP10TfLiteNode+0xa5>
400de05e:	057a46        	j	400df64b <_ZN6tflite12_GLOBAL__N_1L4EvalEP13TfLiteContextP10TfLiteNode+0x168f>
400de061:	021926        	beqi	a9, 1, 400de067 <_ZN6tflite12_GLOBAL__N_1L4EvalEP13TfLiteContextP10TfLiteNode+0xab>
400de064:	06d346        	j	400dfbb5 <_ZN6tflite12_GLOBAL__N_1L4EvalEP13TfLiteContextP10TfLiteNode+0x1bf9>
400de067:	40c122        	addi	a2, a1, 64
400de06a:	e0a0a2        	movi	a10, 224
400de06d:	0dbd      	mov.n	a11, a13
400de06f:	05cd      	mov.n	a12, a5
400de071:	a2aa      	add.n	a10, a2, a10
400de073:	074425        	call8	400e54b4 <_ZN6tflite15ConvParamsFloatERK16TfLiteConvParamsRKNS_10OpDataConvE>
400de076:	20a4c2        	movi	a12, 0x420
400de079:	cc1a      	add.n	a12, a12, a1
400de07b:	0cb8      	l32i.n	a11, a12, 0
400de07d:	03d242        	addmi	a4, a2, 0x300
400de080:	b8a0a2        	movi	a10, 184
400de083:	a4aa      	add.n	a10, a4, a10
400de085:	07b025        	call8	400e5b88 <_ZN6tflite5micro14GetTensorShapeEPK16TfLiteEvalTensor>
400de088:	20a4d2        	movi	a13, 0x420
400de08b:	dd1a      	add.n	a13, a13, a1
400de08d:	0dd8      	l32i.n	a13, a13, 0
400de08f:	9ca0a2        	movi	a10, 156
400de092:	07bd      	mov.n	a11, a7
400de094:	a4aa      	add.n	a10, a4, a10
400de096:	0de8      	l32i.n	a14, a13, 0
400de098:	9ca4d2        	movi	a13, 0x49c
400de09b:	dd1a      	add.n	a13, a13, a1
400de09d:	0de9      	s32i.n	a14, a13, 0
400de09f:	07aea5        	call8	400e5b88 <_ZN6tflite5micro14GetTensorShapeEPK16TfLiteEvalTensor>
400de0a2:	f7a716        	beqz	a7, 400de020 <_ZN6tflite12_GLOBAL__N_1L4EvalEP13TfLiteContextP10TfLiteNode+0x64>
400de0a5:	80a0a2        	movi	a10, 128
400de0a8:	a4aa      	add.n	a10, a4, a10
400de0aa:	a0a4f2        	movi	a15, 0x4a0
400de0ad:	0748      	l32i.n	a4, a7, 0
400de0af:	ff1a      	add.n	a15, a15, a1
400de0b1:	03bd      	mov.n	a11, a3
400de0b3:	0f49      	s32i.n	a4, a15, 0
400de0b5:	07ad25        	call8	400e5b88 <_ZN6tflite5micro14GetTensorShapeEPK16TfLiteEvalTensor>
400de0b8:	038c      	beqz.n	a3, 400de0bc <_ZN6tflite12_GLOBAL__N_1L4EvalEP13TfLiteContextP10TfLiteNode+0x100>
400de0ba:	0338      	l32i.n	a3, a3, 0
400de0bc:	03d272        	addmi	a7, a2, 0x300
400de0bf:	06bd      	mov.n	a11, a6
400de0c1:	64c7a2        	addi	a10, a7, 100
400de0c4:	07ac25        	call8	400e5b88 <_ZN6tflite5micro14GetTensorShapeEPK16TfLiteEvalTensor>
400de0c7:	f55616        	beqz	a6, 400de020 <_ZN6tflite12_GLOBAL__N_1L4EvalEP13TfLiteContextP10TfLiteNode+0x64>
400de0ca:	0668      	l32i.n	a6, a6, 0
400de0cc:	98a452        	movi	a5, 0x498
400de0cf:	551a      	add.n	a5, a5, a1
400de0d1:	0b0c      	movi.n	a11, 0
400de0d3:	48c7a2        	addi	a10, a7, 72
400de0d6:	006562        	s32i	a6, a5, 0
400de0d9:	07aae5        	call8	400e5b88 <_ZN6tflite5micro14GetTensorShapeEPK16TfLiteEvalTensor>
400de0dc:	74a462        	movi	a6, 0x474
400de0df:	661a      	add.n	a6, a6, a1
400de0e1:	78a4a2        	movi	a10, 0x478
400de0e4:	919192        	l16si	a9, a1, 0x122
400de0e7:	7ca4c2        	movi	a12, 0x47c
400de0ea:	80a4e2        	movi	a14, 0x480
400de0ed:	84a442        	movi	a4, 0x484
400de0f0:	aa1a      	add.n	a10, a10, a1
400de0f2:	0699      	s32i.n	a9, a6, 0
400de0f4:	88a462        	movi	a6, 0x488
400de0f7:	cc1a      	add.n	a12, a12, a1
400de0f9:	ee1a      	add.n	a14, a14, a1
400de0fb:	441a      	add.n	a4, a4, a1
400de0fd:	9291b2        	l16si	a11, a1, 0x124
400de100:	661a      	add.n	a6, a6, a1
400de102:	9591d2        	l16si	a13, a1, 0x12a
400de105:	9691f2        	l16si	a15, a1, 0x12c
400de108:	979152        	l16si	a5, a1, 0x12e
400de10b:	989192        	l16si	a9, a1, 0x130
400de10e:	ee2282        	l32i	a8, a2, 0x3b8
400de111:	0ab9      	s32i.n	a11, a10, 0
400de113:	0cd9      	s32i.n	a13, a12, 0
400de115:	0ef9      	s32i.n	a15, a14, 0
400de117:	0459      	s32i.n	a5, a4, 0
400de119:	0699      	s32i.n	a9, a6, 0
400de11b:	540123        	lsi	f2, a1, 0x150
400de11e:	550133        	lsi	f3, a1, 0x154
400de121:	024826        	beqi	a8, 4, 400de127 <_ZN6tflite12_GLOBAL__N_1L4EvalEP13TfLiteContextP10TfLiteNode+0x16b>
400de124:	ffbe06        	j	400de020 <_ZN6tflite12_GLOBAL__N_1L4EvalEP13TfLiteContextP10TfLiteNode+0x64>
400de127:	e72282        	l32i	a8, a2, 0x39c
400de12a:	024826        	beqi	a8, 4, 400de130 <_ZN6tflite12_GLOBAL__N_1L4EvalEP13TfLiteContextP10TfLiteNode+0x174>
400de12d:	ffbbc6        	j	400de020 <_ZN6tflite12_GLOBAL__N_1L4EvalEP13TfLiteContextP10TfLiteNode+0x64>
400de130:	d92282        	l32i	a8, a2, 0x364
400de133:	024826        	beqi	a8, 4, 400de139 <_ZN6tflite12_GLOBAL__N_1L4EvalEP13TfLiteContextP10TfLiteNode+0x17d>
400de136:	ffb986        	j	400de020 <_ZN6tflite12_GLOBAL__N_1L4EvalEP13TfLiteContextP10TfLiteNode+0x64>
400de139:	3ca4a2        	movi	a10, 0x43c
400de13c:	aa1a      	add.n	a10, a10, a1
400de13e:	ef22b2        	l32i	a11, a2, 0x3bc
400de141:	da2282        	l32i	a8, a2, 0x368
400de144:	0ab9      	s32i.n	a11, a10, 0
400de146:	021b87        	beq	a11, a8, 400de14c <_ZN6tflite12_GLOBAL__N_1L4EvalEP13TfLiteContextP10TfLiteNode+0x190>
400de149:	ffb4c6        	j	400de020 <_ZN6tflite12_GLOBAL__N_1L4EvalEP13TfLiteContextP10TfLiteNode+0x64>
400de14c:	e82252        	l32i	a5, a2, 0x3a0
400de14f:	dd2242        	l32i	a4, a2, 0x374
400de152:	f222f2        	l32i	a15, a2, 0x3c8
400de155:	021457        	beq	a4, a5, 400de15b <_ZN6tflite12_GLOBAL__N_1L4EvalEP13TfLiteContextP10TfLiteNode+0x19f>
400de158:	ffb106        	j	400de020 <_ZN6tflite12_GLOBAL__N_1L4EvalEP13TfLiteContextP10TfLiteNode+0x64>
400de15b:	b3ac      	beqz.n	a3, 400de18a <_ZN6tflite12_GLOBAL__N_1L4EvalEP13TfLiteContextP10TfLiteNode+0x1ce>
400de15d:	e02282        	l32i	a8, a2, 0x380
400de160:	1e18a6        	blti	a8, 1, 400de182 <_ZN6tflite12_GLOBAL__N_1L4EvalEP13TfLiteContextP10TfLiteNode+0x1c6>
400de163:	1188e0        	slli	a8, a8, 2
400de166:	fcc882        	addi	a8, a8, -4
400de169:	418280        	srli	a8, a8, 2
400de16c:	80a392        	movi	a9, 0x380
400de16f:	1a0c      	movi.n	a10, 1
400de171:	929a      	add.n	a9, a2, a9
400de173:	88aa      	add.n	a8, a8, a10
400de175:	068876        	loop	a8, 400de17f <_ZN6tflite12_GLOBAL__N_1L4EvalEP13TfLiteContextP10TfLiteNode+0x1c3>
400de178:	19b8      	l32i.n	a11, a9, 4
400de17a:	994b      	addi.n	a9, a9, 4
400de17c:	82aab0        	mull	a10, a10, a11
400de17f:	000046        	j	400de184 <_ZN6tflite12_GLOBAL__N_1L4EvalEP13TfLiteContextP10TfLiteNode+0x1c8>
400de182:	1a0c      	movi.n	a10, 1
400de184:	0215a7        	beq	a5, a10, 400de18a <_ZN6tflite12_GLOBAL__N_1L4EvalEP13TfLiteContextP10TfLiteNode+0x1ce>
400de187:	ffa546        	j	400de020 <_ZN6tflite12_GLOBAL__N_1L4EvalEP13TfLiteContextP10TfLiteNode+0x64>
400de18a:	eb2262        	l32i	a6, a2, 0x3ac
400de18d:	8ca4c2        	movi	a12, 0x48c
400de190:	24a4e2        	movi	a14, 0x424
400de193:	cc1a      	add.n	a12, a12, a1
400de195:	ee1a      	add.n	a14, a14, a1
400de197:	f022d2        	l32i	a13, a2, 0x3c0
400de19a:	d29f60        	quos	a9, a15, a6
400de19d:	03d282        	addmi	a8, a2, 0x300
400de1a0:	2928a2        	l32i	a10, a8, 164
400de1a3:	0cd9      	s32i.n	a13, a12, 0
400de1a5:	0ea9      	s32i.n	a10, a14, 0
400de1a7:	f12222        	l32i	a2, a2, 0x3c4
400de1aa:	2a2872        	l32i	a7, a8, 168
400de1ad:	e6f916        	beqz	a9, 400de020 <_ZN6tflite12_GLOBAL__N_1L4EvalEP13TfLiteContextP10TfLiteNode+0x64>
400de1b0:	f2ef60        	rems	a14, a15, a6
400de1b3:	e69e56        	bnez	a14, 400de020 <_ZN6tflite12_GLOBAL__N_1L4EvalEP13TfLiteContextP10TfLiteNode+0x64>
400de1b6:	90a4b2        	movi	a11, 0x490
400de1b9:	d2c590        	quos	a12, a5, a9
400de1bc:	bb1a      	add.n	a11, a11, a1
400de1be:	0bc9      	s32i.n	a12, a11, 0
400de1c0:	e5cc16        	beqz	a12, 400de020 <_ZN6tflite12_GLOBAL__N_1L4EvalEP13TfLiteContextP10TfLiteNode+0x64>
400de1c3:	3ca4b2        	movi	a11, 0x43c
400de1c6:	28a4d2        	movi	a13, 0x428
400de1c9:	20a4a2        	movi	a10, 0x420
400de1cc:	1b2892        	l32i	a9, a8, 108
400de1cf:	bb1a      	add.n	a11, a11, a1
400de1d1:	dd1a      	add.n	a13, a13, a1
400de1d3:	aa1a      	add.n	a10, a10, a1
400de1d5:	1c2882        	l32i	a8, a8, 112
400de1d8:	0bb8      	l32i.n	a11, a11, 0
400de1da:	0d99      	s32i.n	a9, a13, 0
400de1dc:	0a89      	s32i.n	a8, a10, 0
400de1de:	021be6        	bgei	a11, 1, 400de1e4 <_ZN6tflite12_GLOBAL__N_1L4EvalEP13TfLiteContextP10TfLiteNode+0x228>
400de1e1:	067b06        	j	400dfbd1 <_ZN6tflite12_GLOBAL__N_1L4EvalEP13TfLiteContextP10TfLiteNode+0x1c15>
400de1e4:	78a4c2        	movi	a12, 0x478
400de1e7:	28a4a2        	movi	a10, 0x428
400de1ea:	aa1a      	add.n	a10, a10, a1
400de1ec:	cc1a      	add.n	a12, a12, a1
400de1ee:	0cc8      	l32i.n	a12, a12, 0
400de1f0:	829f20        	mull	a9, a15, a2
400de1f3:	828c20        	mull	a8, a12, a2
400de1f6:	2ca4d2        	movi	a13, 0x42c
400de1f9:	dd1a      	add.n	a13, a13, a1
400de1fb:	0ab8      	l32i.n	a11, a10, 0
400de1fd:	20a4a2        	movi	a10, 0x420
400de200:	aa1a      	add.n	a10, a10, a1
400de202:	608080        	neg	a8, a8
400de205:	0ac8      	l32i.n	a12, a10, 0
400de207:	0d99      	s32i.n	a9, a13, 0
400de209:	829bc0        	mull	a9, a11, a12
400de20c:	8ca4d2        	movi	a13, 0x48c
400de20f:	24a4b2        	movi	a11, 0x424
400de212:	74a4c2        	movi	a12, 0x474
400de215:	dd1a      	add.n	a13, a13, a1
400de217:	bb1a      	add.n	a11, a11, a1
400de219:	cc1a      	add.n	a12, a12, a1
400de21b:	0cc8      	l32i.n	a12, a12, 0
400de21d:	0bb8      	l32i.n	a11, a11, 0
400de21f:	0dd8      	l32i.n	a13, a13, 0
400de221:	82ad20        	mull	a10, a13, a2
400de224:	82db70        	mull	a13, a11, a7
400de227:	c0b8c0        	sub	a11, a8, a12
400de22a:	82c940        	mull	a12, a9, a4
400de22d:	aca492        	movi	a9, 0x4ac
400de230:	991a      	add.n	a9, a9, a1
400de232:	09c9      	s32i.n	a12, a9, 0
400de234:	82aaf0        	mull	a10, a10, a15
400de237:	a8a492        	movi	a9, 0x4a8
400de23a:	991a      	add.n	a9, a9, a1
400de23c:	828bf0        	mull	a8, a11, a15
400de23f:	09a9      	s32i.n	a10, a9, 0
400de241:	20a492        	movi	a9, 0x420
400de244:	991a      	add.n	a9, a9, a1
400de246:	40a4c2        	movi	a12, 0x440
400de249:	80a4b2        	movi	a11, 0x480
400de24c:	0998      	l32i.n	a9, a9, 0
400de24e:	cc1a      	add.n	a12, a12, a1
400de250:	82a490        	mull	a10, a4, a9
400de253:	c4a492        	movi	a9, 0x4c4
400de256:	991a      	add.n	a9, a9, a1
400de258:	09a9      	s32i.n	a10, a9, 0
400de25a:	2ca4a2        	movi	a10, 0x42c
400de25d:	aa1a      	add.n	a10, a10, a1
400de25f:	bb1a      	add.n	a11, a11, a1
400de261:	0c89      	s32i.n	a8, a12, 0
400de263:	0bb8      	l32i.n	a11, a11, 0
400de265:	0a88      	l32i.n	a8, a10, 0
400de267:	82ad60        	mull	a10, a13, a6
400de26a:	82cb80        	mull	a12, a11, a8
400de26d:	cca4b2        	movi	a11, 0x4cc
400de270:	bb1a      	add.n	a11, a11, a1
400de272:	0bc9      	s32i.n	a12, a11, 0
400de274:	7ca4c2        	movi	a12, 0x47c
400de277:	cc1a      	add.n	a12, a12, a1
400de279:	88a4b2        	movi	a11, 0x488
400de27c:	bb1a      	add.n	a11, a11, a1
400de27e:	0cc8      	l32i.n	a12, a12, 0
400de280:	b4a4d2        	movi	a13, 0x4b4
400de283:	829fc0        	mull	a9, a15, a12
400de286:	bca4c2        	movi	a12, 0x4bc
400de289:	cc1a      	add.n	a12, a12, a1
400de28b:	0bb8      	l32i.n	a11, a11, 0
400de28d:	dd1a      	add.n	a13, a13, a1
400de28f:	0c99      	s32i.n	a9, a12, 0
400de291:	82cb80        	mull	a12, a11, a8
400de294:	84a482        	movi	a8, 0x484
400de297:	881a      	add.n	a8, a8, a1
400de299:	b0a4b2        	movi	a11, 0x4b0
400de29c:	0888      	l32i.n	a8, a8, 0
400de29e:	bb1a      	add.n	a11, a11, a1
400de2a0:	829f80        	mull	a9, a15, a8
400de2a3:	c0a482        	movi	a8, 0x4c0
400de2a6:	881a      	add.n	a8, a8, a1
400de2a8:	0bc9      	s32i.n	a12, a11, 0
400de2aa:	b8a4c2        	movi	a12, 0x4b8
400de2ad:	cc1a      	add.n	a12, a12, a1
400de2af:	d8a4b2        	movi	a11, 0x4d8
400de2b2:	bb1a      	add.n	a11, a11, a1
400de2b4:	0da9      	s32i.n	a10, a13, 0
400de2b6:	82d670        	mull	a13, a6, a7
400de2b9:	44a4a2        	movi	a10, 0x444
400de2bc:	aa1a      	add.n	a10, a10, a1
400de2be:	0cd9      	s32i.n	a13, a12, 0
400de2c0:	dca4c2        	movi	a12, 0x4dc
400de2c3:	cc1a      	add.n	a12, a12, a1
400de2c5:	07dd      	mov.n	a13, a7
400de2c7:	057d      	mov.n	a7, a5
400de2c9:	0899      	s32i.n	a9, a8, 0
400de2cb:	2ca492        	movi	a9, 0x42c
400de2ce:	0f8d      	mov.n	a8, a15
400de2d0:	991a      	add.n	a9, a9, a1
400de2d2:	0efd      	mov.n	a15, a14
400de2d4:	09e9      	s32i.n	a14, a9, 0
400de2d6:	0ae9      	s32i.n	a14, a10, 0
400de2d8:	06ed      	mov.n	a14, a6
400de2da:	086d      	mov.n	a6, a8
400de2dc:	0b29      	s32i.n	a2, a11, 0
400de2de:	032d      	mov.n	a2, a3
400de2e0:	0c49      	s32i.n	a4, a12, 0
400de2e2:	010386        	j	400de6f4 <_ZN6tflite12_GLOBAL__N_1L4EvalEP13TfLiteContextP10TfLiteNode+0x738>
400de2e5:	78a432        	movi	a3, 0x478
400de2e8:	331a      	add.n	a3, a3, a1
400de2ea:	0338      	l32i.n	a3, a3, 0
400de2ec:	44a482        	movi	a8, 0x444
400de2ef:	604030        	neg	a4, a3
400de2f2:	6ca432        	movi	a3, 0x46c
400de2f5:	331a      	add.n	a3, a3, a1
400de2f7:	0349      	s32i.n	a4, a3, 0
400de2f9:	40a442        	movi	a4, 0x440
400de2fc:	441a      	add.n	a4, a4, a1
400de2fe:	881a      	add.n	a8, a8, a1
400de300:	38a4a2        	movi	a10, 0x438
400de303:	0458      	l32i.n	a5, a4, 0
400de305:	68a442        	movi	a4, 0x468
400de308:	441a      	add.n	a4, a4, a1
400de30a:	aa1a      	add.n	a10, a10, a1
400de30c:	0898      	l32i.n	a9, a8, 0
400de30e:	64a482        	movi	a8, 0x464
400de311:	881a      	add.n	a8, a8, a1
400de313:	0459      	s32i.n	a5, a4, 0
400de315:	0899      	s32i.n	a9, a8, 0
400de317:	0af9      	s32i.n	a15, a10, 0
400de319:	20a4b2        	movi	a11, 0x420
400de31c:	bb1a      	add.n	a11, a11, a1
400de31e:	0bb8      	l32i.n	a11, a11, 0
400de320:	641be6        	bgei	a11, 1, 400de388 <_ZN6tflite12_GLOBAL__N_1L4EvalEP13TfLiteContextP10TfLiteNode+0x3cc>
400de323:	38a4c2        	movi	a12, 0x438
400de326:	cc1a      	add.n	a12, a12, a1
400de328:	0cc8      	l32i.n	a12, a12, 0
400de32a:	3c1b      	addi.n	a3, a12, 1
400de32c:	38a4c2        	movi	a12, 0x438
400de32f:	cc1a      	add.n	a12, a12, a1
400de331:	0c39      	s32i.n	a3, a12, 0
400de333:	64a432        	movi	a3, 0x464
400de336:	331a      	add.n	a3, a3, a1
400de338:	0348      	l32i.n	a4, a3, 0
400de33a:	c4a432        	movi	a3, 0x4c4
400de33d:	331a      	add.n	a3, a3, a1
400de33f:	0338      	l32i.n	a3, a3, 0
400de341:	443a      	add.n	a4, a4, a3
400de343:	64a432        	movi	a3, 0x464
400de346:	331a      	add.n	a3, a3, a1
400de348:	0349      	s32i.n	a4, a3, 0
400de34a:	68a442        	movi	a4, 0x468
400de34d:	441a      	add.n	a4, a4, a1
400de34f:	0458      	l32i.n	a5, a4, 0
400de351:	cca442        	movi	a4, 0x4cc
400de354:	441a      	add.n	a4, a4, a1
400de356:	0448      	l32i.n	a4, a4, 0
400de358:	554a      	add.n	a5, a5, a4
400de35a:	68a442        	movi	a4, 0x468
400de35d:	441a      	add.n	a4, a4, a1
400de35f:	0459      	s32i.n	a5, a4, 0
400de361:	6ca452        	movi	a5, 0x46c
400de364:	551a      	add.n	a5, a5, a1
400de366:	0588      	l32i.n	a8, a5, 0
400de368:	80a452        	movi	a5, 0x480
400de36b:	551a      	add.n	a5, a5, a1
400de36d:	0558      	l32i.n	a5, a5, 0
400de36f:	885a      	add.n	a8, a8, a5
400de371:	6ca452        	movi	a5, 0x46c
400de374:	551a      	add.n	a5, a5, a1
400de376:	0589      	s32i.n	a8, a5, 0
400de378:	28a482        	movi	a8, 0x428
400de37b:	881a      	add.n	a8, a8, a1
400de37d:	0888      	l32i.n	a8, a8, 0
400de37f:	0c98      	l32i.n	a9, a12, 0
400de381:	949897        	bne	a8, a9, 400de319 <_ZN6tflite12_GLOBAL__N_1L4EvalEP13TfLiteContextP10TfLiteNode+0x35d>
400de384:	00c7c6        	j	400de6a7 <_ZN6tflite12_GLOBAL__N_1L4EvalEP13TfLiteContextP10TfLiteNode+0x6eb>
400de387:	00          	.byte	00
400de388:	74a4a2        	movi	a10, 0x474
400de38b:	aa1a      	add.n	a10, a10, a1
400de38d:	0aa8      	l32i.n	a10, a10, 0
400de38f:	64a432        	movi	a3, 0x464
400de392:	60b0a0        	neg	a11, a10
400de395:	60a4a2        	movi	a10, 0x460
400de398:	aa1a      	add.n	a10, a10, a1
400de39a:	0ab9      	s32i.n	a11, a10, 0
400de39c:	68a4b2        	movi	a11, 0x468
400de39f:	bb1a      	add.n	a11, a11, a1
400de3a1:	331a      	add.n	a3, a3, a1
400de3a3:	34a452        	movi	a5, 0x434
400de3a6:	0bc8      	l32i.n	a12, a11, 0
400de3a8:	50a4b2        	movi	a11, 0x450
400de3ab:	551a      	add.n	a5, a5, a1
400de3ad:	bb1a      	add.n	a11, a11, a1
400de3af:	0348      	l32i.n	a4, a3, 0
400de3b1:	54a432        	movi	a3, 0x454
400de3b4:	331a      	add.n	a3, a3, a1
400de3b6:	05f9      	s32i.n	a15, a5, 0
400de3b8:	0d5d      	mov.n	a5, a13
400de3ba:	0fdd      	mov.n	a13, a15
400de3bc:	06fd      	mov.n	a15, a6
400de3be:	0bc9      	s32i.n	a12, a11, 0
400de3c0:	0ecd      	mov.n	a12, a14
400de3c2:	20e770        	or	a14, a7, a7
400de3c5:	006342        	s32i	a4, a3, 0
400de3c8:	54a462        	movi	a6, 0x454
400de3cb:	661a      	add.n	a6, a6, a1
400de3cd:	090c      	movi.n	a9, 0
400de3cf:	0d7d      	mov.n	a7, a13
400de3d1:	0688      	l32i.n	a8, a6, 0
400de3d3:	98a462        	movi	a6, 0x498
400de3d6:	661a      	add.n	a6, a6, a1
400de3d8:	0668      	l32i.n	a6, a6, 0
400de3da:	a08860        	addx4	a8, a8, a6
400de3dd:	48a462        	movi	a6, 0x448
400de3e0:	661a      	add.n	a6, a6, a1
400de3e2:	0689      	s32i.n	a8, a6, 0
400de3e4:	4ca482        	movi	a8, 0x44c
400de3e7:	881a      	add.n	a8, a8, a1
400de3e9:	0899      	s32i.n	a9, a8, 0
400de3eb:	721ee6        	bgei	a14, 1, 400de461 <_ZN6tflite12_GLOBAL__N_1L4EvalEP13TfLiteContextP10TfLiteNode+0x4a5>
400de3ee:	34a4a2        	movi	a10, 0x434
400de3f1:	aa1a      	add.n	a10, a10, a1
400de3f3:	0aa8      	l32i.n	a10, a10, 0
400de3f5:	ba1b      	addi.n	a11, a10, 1
400de3f7:	34a4a2        	movi	a10, 0x434
400de3fa:	aa1a      	add.n	a10, a10, a1
400de3fc:	0ab9      	s32i.n	a11, a10, 0
400de3fe:	54a4b2        	movi	a11, 0x454
400de401:	bb1a      	add.n	a11, a11, a1
400de403:	0b38      	l32i.n	a3, a11, 0
400de405:	dca4b2        	movi	a11, 0x4dc
400de408:	bb1a      	add.n	a11, a11, a1
400de40a:	0bb8      	l32i.n	a11, a11, 0
400de40c:	33ba      	add.n	a3, a3, a11
400de40e:	54a4b2        	movi	a11, 0x454
400de411:	bb1a      	add.n	a11, a11, a1
400de413:	0b39      	s32i.n	a3, a11, 0
400de415:	50a432        	movi	a3, 0x450
400de418:	331a      	add.n	a3, a3, a1
400de41a:	0348      	l32i.n	a4, a3, 0
400de41c:	bca432        	movi	a3, 0x4bc
400de41f:	331a      	add.n	a3, a3, a1
400de421:	0338      	l32i.n	a3, a3, 0
400de423:	443a      	add.n	a4, a4, a3
400de425:	50a432        	movi	a3, 0x450
400de428:	331a      	add.n	a3, a3, a1
400de42a:	0349      	s32i.n	a4, a3, 0
400de42c:	60a442        	movi	a4, 0x460
400de42f:	441a      	add.n	a4, a4, a1
400de431:	0468      	l32i.n	a6, a4, 0
400de433:	7ca442        	movi	a4, 0x47c
400de436:	441a      	add.n	a4, a4, a1
400de438:	0448      	l32i.n	a4, a4, 0
400de43a:	664a      	add.n	a6, a6, a4
400de43c:	60a442        	movi	a4, 0x460
400de43f:	441a      	add.n	a4, a4, a1
400de441:	0469      	s32i.n	a6, a4, 0
400de443:	20a462        	movi	a6, 0x420
400de446:	661a      	add.n	a6, a6, a1
400de448:	0668      	l32i.n	a6, a6, 0
400de44a:	0a88      	l32i.n	a8, a10, 0
400de44c:	021687        	beq	a6, a8, 400de452 <_ZN6tflite12_GLOBAL__N_1L4EvalEP13TfLiteContextP10TfLiteNode+0x496>
400de44f:	ffdd46        	j	400de3c8 <_ZN6tflite12_GLOBAL__N_1L4EvalEP13TfLiteContextP10TfLiteNode+0x40c>
400de452:	0e7d      	mov.n	a7, a14
400de454:	0f6d      	mov.n	a6, a15
400de456:	0ced      	mov.n	a14, a12
400de458:	0dfd      	mov.n	a15, a13
400de45a:	05dd      	mov.n	a13, a5
400de45c:	ffb0c6        	j	400de323 <_ZN6tflite12_GLOBAL__N_1L4EvalEP13TfLiteContextP10TfLiteNode+0x367>
400de45f:	00          	.byte	00
400de460:	00          	.byte	00
400de461:	94a492        	movi	a9, 0x494
400de464:	991a      	add.n	a9, a9, a1
400de466:	09e9      	s32i.n	a14, a9, 0
400de468:	90a4a2        	movi	a10, 0x490
400de46b:	24a4b2        	movi	a11, 0x424
400de46e:	aa1a      	add.n	a10, a10, a1
400de470:	bb1a      	add.n	a11, a11, a1
400de472:	0aa8      	l32i.n	a10, a10, 0
400de474:	d287a0        	quos	a8, a7, a10
400de477:	0bb8      	l32i.n	a11, a11, 0
400de479:	021be6        	bgei	a11, 1, 400de47f <_ZN6tflite12_GLOBAL__N_1L4EvalEP13TfLiteContextP10TfLiteNode+0x4c3>
400de47c:	007086        	j	400de642 <_ZN6tflite12_GLOBAL__N_1L4EvalEP13TfLiteContextP10TfLiteNode+0x686>
400de47f:	9ca442        	movi	a4, 0x49c
400de482:	441a      	add.n	a4, a4, a1
400de484:	82b8c0        	mull	a11, a8, a12
400de487:	0448      	l32i.n	a4, a4, 0
400de489:	50a492        	movi	a9, 0x450
400de48c:	a06b40        	addx4	a6, a11, a4
400de48f:	c8a442        	movi	a4, 0x4c8
400de492:	441a      	add.n	a4, a4, a1
400de494:	0469      	s32i.n	a6, a4, 0
400de496:	4ca462        	movi	a6, 0x44c
400de499:	661a      	add.n	a6, a6, a1
400de49b:	991a      	add.n	a9, a9, a1
400de49d:	6ca432        	movi	a3, 0x46c
400de4a0:	0688      	l32i.n	a8, a6, 0
400de4a2:	58a462        	movi	a6, 0x458
400de4a5:	331a      	add.n	a3, a3, a1
400de4a7:	661a      	add.n	a6, a6, a1
400de4a9:	040c      	movi.n	a4, 0
400de4ab:	09a8      	l32i.n	a10, a9, 0
400de4ad:	5ca492        	movi	a9, 0x45c
400de4b0:	991a      	add.n	a9, a9, a1
400de4b2:	fa1450        	wfr	f1, a4
400de4b5:	0689      	s32i.n	a8, a6, 0
400de4b7:	d4a462        	movi	a6, 0x4d4
400de4ba:	8bca      	add.n	a8, a11, a12
400de4bc:	661a      	add.n	a6, a6, a1
400de4be:	03e8      	l32i.n	a14, a3, 0
400de4c0:	30a432        	movi	a3, 0x430
400de4c3:	331a      	add.n	a3, a3, a1
400de4c5:	09a9      	s32i.n	a10, a9, 0
400de4c7:	e0a492        	movi	a9, 0x4e0
400de4ca:	991a      	add.n	a9, a9, a1
400de4cc:	0063d2        	s32i	a13, a3, 0
400de4cf:	006682        	s32i	a8, a6, 0
400de4d2:	0979      	s32i.n	a7, a9, 0
400de4d4:	0215e6        	bgei	a5, 1, 400de4da <_ZN6tflite12_GLOBAL__N_1L4EvalEP13TfLiteContextP10TfLiteNode+0x51e>
400de4d7:	004146        	j	400de5e0 <_ZN6tflite12_GLOBAL__N_1L4EvalEP13TfLiteContextP10TfLiteNode+0x624>
400de4da:	8ca4a2        	movi	a10, 0x48c
400de4dd:	aa1a      	add.n	a10, a10, a1
400de4df:	318fe0        	srai	a8, a14, 31
400de4e2:	0aa8      	l32i.n	a10, a10, 0
400de4e4:	881b      	addi.n	a8, a8, 1
400de4e6:	190c      	movi.n	a9, 1
400de4e8:	012ea7        	blt	a14, a10, 400de4ed <_ZN6tflite12_GLOBAL__N_1L4EvalEP13TfLiteContextP10TfLiteNode+0x531>
400de4eb:	090c      	movi.n	a9, 0
400de4ed:	a4a432        	movi	a3, 0x4a4
400de4f0:	104890        	and	a4, a8, a9
400de4f3:	331a      	add.n	a3, a3, a1
400de4f5:	0349      	s32i.n	a4, a3, 0
400de4f7:	5ca482        	movi	a8, 0x45c
400de4fa:	60a432        	movi	a3, 0x460
400de4fd:	58a462        	movi	a6, 0x458
400de500:	881a      	add.n	a8, a8, a1
400de502:	331a      	add.n	a3, a3, a1
400de504:	661a      	add.n	a6, a6, a1
400de506:	08a8      	l32i.n	a10, a8, 0
400de508:	002392        	l32i	a9, a3, 0
400de50b:	002672        	l32i	a7, a6, 0
400de50e:	0d6d      	mov.n	a6, a13
400de510:	0b0996        	bltz	a9, 400de5c4 <_ZN6tflite12_GLOBAL__N_1L4EvalEP13TfLiteContextP10TfLiteNode+0x608>
400de513:	d8a442        	movi	a4, 0x4d8
400de516:	441a      	add.n	a4, a4, a1
400de518:	0448      	l32i.n	a4, a4, 0
400de51a:	022947        	blt	a9, a4, 400de520 <_ZN6tflite12_GLOBAL__N_1L4EvalEP13TfLiteContextP10TfLiteNode+0x564>
400de51d:	0028c6        	j	400de5c4 <_ZN6tflite12_GLOBAL__N_1L4EvalEP13TfLiteContextP10TfLiteNode+0x608>
400de520:	a4a482        	movi	a8, 0x4a4
400de523:	881a      	add.n	a8, a8, a1
400de525:	0888      	l32i.n	a8, a8, 0
400de527:	099816        	beqz	a8, 400de5c4 <_ZN6tflite12_GLOBAL__N_1L4EvalEP13TfLiteContextP10TfLiteNode+0x608>
400de52a:	021ce6        	bgei	a12, 1, 400de530 <_ZN6tflite12_GLOBAL__N_1L4EvalEP13TfLiteContextP10TfLiteNode+0x574>
400de52d:	0024c6        	j	400de5c4 <_ZN6tflite12_GLOBAL__N_1L4EvalEP13TfLiteContextP10TfLiteNode+0x608>
400de530:	c8a432        	movi	a3, 0x4c8
400de533:	331a      	add.n	a3, a3, a1
400de535:	0338      	l32i.n	a3, a3, 0
400de537:	a04a30        	addx4	a4, a10, a3
400de53a:	d0a432        	movi	a3, 0x4d0
400de53d:	331a      	add.n	a3, a3, a1
400de53f:	0349      	s32i.n	a4, a3, 0
400de541:	a0a442        	movi	a4, 0x4a0
400de544:	441a      	add.n	a4, a4, a1
400de546:	d4a432        	movi	a3, 0x4d4
400de549:	331a      	add.n	a3, a3, a1
400de54b:	0448      	l32i.n	a4, a4, 0
400de54d:	a08740        	addx4	a8, a7, a4
400de550:	e4a442        	movi	a4, 0x4e4
400de553:	441a      	add.n	a4, a4, a1
400de555:	0338      	l32i.n	a3, a3, 0
400de557:	0489      	s32i.n	a8, a4, 0
400de559:	c043b0        	sub	a4, a3, a11
400de55c:	70a432        	movi	a3, 0x470
400de55f:	331a      	add.n	a3, a3, a1
400de561:	0b8d      	mov.n	a8, a11
400de563:	0349      	s32i.n	a4, a3, 0
400de565:	e8a442        	movi	a4, 0x4e8
400de568:	441a      	add.n	a4, a4, a1
400de56a:	0499      	s32i.n	a9, a4, 0
400de56c:	eca492        	movi	a9, 0x4ec
400de56f:	991a      	add.n	a9, a9, a1
400de571:	09a9      	s32i.n	a10, a9, 0
400de573:	d0a4a2        	movi	a10, 0x4d0
400de576:	e4a492        	movi	a9, 0x4e4
400de579:	aa1a      	add.n	a10, a10, a1
400de57b:	991a      	add.n	a9, a9, a1
400de57d:	0a38      	l32i.n	a3, a10, 0
400de57f:	0948      	l32i.n	a4, a9, 0
400de581:	d0a4a2        	movi	a10, 0x4d0
400de584:	2098f0        	or	a9, a8, a15
400de587:	aa1a      	add.n	a10, a10, a1
400de589:	006a92        	s32i	a9, a10, 0
400de58c:	008916        	beqz	a9, 400de598 <_ZN6tflite12_GLOBAL__N_1L4EvalEP13TfLiteContextP10TfLiteNode+0x5dc>
400de58f:	a8d896        	bltz	a8, 400de020 <_ZN6tflite12_GLOBAL__N_1L4EvalEP13TfLiteContextP10TfLiteNode+0x64>
400de592:	0228f7        	blt	a8, a15, 400de598 <_ZN6tflite12_GLOBAL__N_1L4EvalEP13TfLiteContextP10TfLiteNode+0x5dc>
400de595:	fea1c6        	j	400de020 <_ZN6tflite12_GLOBAL__N_1L4EvalEP13TfLiteContextP10TfLiteNode+0x64>
400de598:	70a4a2        	movi	a10, 0x470
400de59b:	aa1a      	add.n	a10, a10, a1
400de59d:	0a98      	l32i.n	a9, a10, 0
400de59f:	881b      	addi.n	a8, a8, 1
400de5a1:	990b      	addi.n	a9, a9, -1
400de5a3:	000343        	lsi	f4, a3, 0
400de5a6:	334b      	addi.n	a3, a3, 4
400de5a8:	000403        	lsi	f0, a4, 0
400de5ab:	444b      	addi.n	a4, a4, 4
400de5ad:	4a1400        	madd.s	f1, f4, f0
400de5b0:	0a99      	s32i.n	a9, a10, 0
400de5b2:	fcb956        	bnez	a9, 400de581 <_ZN6tflite12_GLOBAL__N_1L4EvalEP13TfLiteContextP10TfLiteNode+0x5c5>
400de5b5:	e8a4a2        	movi	a10, 0x4e8
400de5b8:	eca432        	movi	a3, 0x4ec
400de5bb:	aa1a      	add.n	a10, a10, a1
400de5bd:	331a      	add.n	a3, a3, a1
400de5bf:	0a98      	l32i.n	a9, a10, 0
400de5c1:	0023a2        	l32i	a10, a3, 0
400de5c4:	84a442        	movi	a4, 0x484
400de5c7:	c0a482        	movi	a8, 0x4c0
400de5ca:	441a      	add.n	a4, a4, a1
400de5cc:	881a      	add.n	a8, a8, a1
400de5ce:	0448      	l32i.n	a4, a4, 0
400de5d0:	661b      	addi.n	a6, a6, 1
400de5d2:	994a      	add.n	a9, a9, a4
400de5d4:	77ca      	add.n	a7, a7, a12
400de5d6:	0888      	l32i.n	a8, a8, 0
400de5d8:	aa8a      	add.n	a10, a10, a8
400de5da:	021567        	beq	a5, a6, 400de5e0 <_ZN6tflite12_GLOBAL__N_1L4EvalEP13TfLiteContextP10TfLiteNode+0x624>
400de5dd:	ffcbc6        	j	400de510 <_ZN6tflite12_GLOBAL__N_1L4EvalEP13TfLiteContextP10TfLiteNode+0x554>
400de5e0:	30a492        	movi	a9, 0x430
400de5e3:	991a      	add.n	a9, a9, a1
400de5e5:	0998      	l32i.n	a9, a9, 0
400de5e7:	24a462        	movi	a6, 0x424
400de5ea:	a91b      	addi.n	a10, a9, 1
400de5ec:	30a492        	movi	a9, 0x430
400de5ef:	991a      	add.n	a9, a9, a1
400de5f1:	09a9      	s32i.n	a10, a9, 0
400de5f3:	5ca4a2        	movi	a10, 0x45c
400de5f6:	aa1a      	add.n	a10, a10, a1
400de5f8:	661a      	add.n	a6, a6, a1
400de5fa:	0a38      	l32i.n	a3, a10, 0
400de5fc:	b0a4a2        	movi	a10, 0x4b0
400de5ff:	aa1a      	add.n	a10, a10, a1
400de601:	0aa8      	l32i.n	a10, a10, 0
400de603:	33aa      	add.n	a3, a3, a10
400de605:	5ca4a2        	movi	a10, 0x45c
400de608:	aa1a      	add.n	a10, a10, a1
400de60a:	0a39      	s32i.n	a3, a10, 0
400de60c:	58a432        	movi	a3, 0x458
400de60f:	331a      	add.n	a3, a3, a1
400de611:	0348      	l32i.n	a4, a3, 0
400de613:	b8a432        	movi	a3, 0x4b8
400de616:	331a      	add.n	a3, a3, a1
400de618:	0338      	l32i.n	a3, a3, 0
400de61a:	443a      	add.n	a4, a4, a3
400de61c:	58a432        	movi	a3, 0x458
400de61f:	331a      	add.n	a3, a3, a1
400de621:	0349      	s32i.n	a4, a3, 0
400de623:	88a442        	movi	a4, 0x488
400de626:	441a      	add.n	a4, a4, a1
400de628:	0448      	l32i.n	a4, a4, 0
400de62a:	ee4a      	add.n	a14, a14, a4
400de62c:	0668      	l32i.n	a6, a6, 0
400de62e:	0988      	l32i.n	a8, a9, 0
400de630:	021687        	beq	a6, a8, 400de636 <_ZN6tflite12_GLOBAL__N_1L4EvalEP13TfLiteContextP10TfLiteNode+0x67a>
400de633:	ffa746        	j	400de4d4 <_ZN6tflite12_GLOBAL__N_1L4EvalEP13TfLiteContextP10TfLiteNode+0x518>
400de636:	e0a492        	movi	a9, 0x4e0
400de639:	991a      	add.n	a9, a9, a1
400de63b:	0978      	l32i.n	a7, a9, 0
400de63d:	000186        	j	400de647 <_ZN6tflite12_GLOBAL__N_1L4EvalEP13TfLiteContextP10TfLiteNode+0x68b>
400de640:	00          	.byte	00
400de641:	00          	.byte	00
400de642:	0a0c      	movi.n	a10, 0
400de644:	fa1a50        	wfr	f1, a10
400de647:	0b0c      	movi.n	a11, 0
400de649:	fa0b50        	wfr	f0, a11
400de64c:	428c      	beqz.n	a2, 400de654 <_ZN6tflite12_GLOBAL__N_1L4EvalEP13TfLiteContextP10TfLiteNode+0x698>
400de64e:	a08720        	addx4	a8, a7, a2
400de651:	000803        	lsi	f0, a8, 0
400de654:	0a0010        	add.s	f0, f0, f1
400de657:	4b0020        	olt.s	b0, f0, f2
400de65a:	020076        	bf	b0, 400de660 <_ZN6tflite12_GLOBAL__N_1L4EvalEP13TfLiteContextP10TfLiteNode+0x6a4>
400de65d:	fa0200        	mov.s	f0, f2
400de660:	4b0300        	olt.s	b0, f3, f0
400de663:	020076        	bf	b0, 400de669 <_ZN6tflite12_GLOBAL__N_1L4EvalEP13TfLiteContextP10TfLiteNode+0x6ad>
400de666:	fa0300        	mov.s	f0, f3
400de669:	4ca462        	movi	a6, 0x44c
400de66c:	661a      	add.n	a6, a6, a1
400de66e:	0688      	l32i.n	a8, a6, 0
400de670:	b4a462        	movi	a6, 0x4b4
400de673:	661a      	add.n	a6, a6, a1
400de675:	48a4e2        	movi	a14, 0x448
400de678:	ee1a      	add.n	a14, a14, a1
400de67a:	0668      	l32i.n	a6, a6, 0
400de67c:	48a432        	movi	a3, 0x448
400de67f:	886a      	add.n	a8, a8, a6
400de681:	4ca462        	movi	a6, 0x44c
400de684:	661a      	add.n	a6, a6, a1
400de686:	0ee8      	l32i.n	a14, a14, 0
400de688:	331a      	add.n	a3, a3, a1
400de68a:	4e4b      	addi.n	a4, a14, 4
400de68c:	771b      	addi.n	a7, a7, 1
400de68e:	0689      	s32i.n	a8, a6, 0
400de690:	94a482        	movi	a8, 0x494
400de693:	881a      	add.n	a8, a8, a1
400de695:	0888      	l32i.n	a8, a8, 0
400de697:	004e03        	ssi	f0, a14, 0
400de69a:	0349      	s32i.n	a4, a3, 0
400de69c:	021787        	beq	a7, a8, 400de6a2 <_ZN6tflite12_GLOBAL__N_1L4EvalEP13TfLiteContextP10TfLiteNode+0x6e6>
400de69f:	ff7146        	j	400de468 <_ZN6tflite12_GLOBAL__N_1L4EvalEP13TfLiteContextP10TfLiteNode+0x4ac>
400de6a2:	08ed      	mov.n	a14, a8
400de6a4:	ff5186        	j	400de3ee <_ZN6tflite12_GLOBAL__N_1L4EvalEP13TfLiteContextP10TfLiteNode+0x432>
400de6a7:	2ca4a2        	movi	a10, 0x42c
400de6aa:	aa1a      	add.n	a10, a10, a1
400de6ac:	0aa8      	l32i.n	a10, a10, 0
400de6ae:	ba1b      	addi.n	a11, a10, 1
400de6b0:	2ca4a2        	movi	a10, 0x42c
400de6b3:	aa1a      	add.n	a10, a10, a1
400de6b5:	0ab9      	s32i.n	a11, a10, 0
400de6b7:	44a4b2        	movi	a11, 0x444
400de6ba:	bb1a      	add.n	a11, a11, a1
400de6bc:	0bc8      	l32i.n	a12, a11, 0
400de6be:	aca4b2        	movi	a11, 0x4ac
400de6c1:	bb1a      	add.n	a11, a11, a1
400de6c3:	0bb8      	l32i.n	a11, a11, 0
400de6c5:	ccba      	add.n	a12, a12, a11
400de6c7:	44a4b2        	movi	a11, 0x444
400de6ca:	bb1a      	add.n	a11, a11, a1
400de6cc:	0bc9      	s32i.n	a12, a11, 0
400de6ce:	40a4c2        	movi	a12, 0x440
400de6d1:	cc1a      	add.n	a12, a12, a1
400de6d3:	0c38      	l32i.n	a3, a12, 0
400de6d5:	a8a4c2        	movi	a12, 0x4a8
400de6d8:	cc1a      	add.n	a12, a12, a1
400de6da:	0cc8      	l32i.n	a12, a12, 0
400de6dc:	33ca      	add.n	a3, a3, a12
400de6de:	40a4c2        	movi	a12, 0x440
400de6e1:	cc1a      	add.n	a12, a12, a1
400de6e3:	0c39      	s32i.n	a3, a12, 0
400de6e5:	3ca432        	movi	a3, 0x43c
400de6e8:	331a      	add.n	a3, a3, a1
400de6ea:	0a48      	l32i.n	a4, a10, 0
400de6ec:	0338      	l32i.n	a3, a3, 0
400de6ee:	029437        	bne	a4, a3, 400de6f4 <_ZN6tflite12_GLOBAL__N_1L4EvalEP13TfLiteContextP10TfLiteNode+0x738>
400de6f1:	053706        	j	400dfbd1 <_ZN6tflite12_GLOBAL__N_1L4EvalEP13TfLiteContextP10TfLiteNode+0x1c15>
400de6f4:	28a442        	movi	a4, 0x428
400de6f7:	441a      	add.n	a4, a4, a1
400de6f9:	0448      	l32i.n	a4, a4, 0
400de6fb:	0214a6        	blti	a4, 1, 400de701 <_ZN6tflite12_GLOBAL__N_1L4EvalEP13TfLiteContextP10TfLiteNode+0x745>
400de6fe:	fef8c6        	j	400de2e5 <_ZN6tflite12_GLOBAL__N_1L4EvalEP13TfLiteContextP10TfLiteNode+0x329>
400de701:	ffe886        	j	400de6a7 <_ZN6tflite12_GLOBAL__N_1L4EvalEP13TfLiteContextP10TfLiteNode+0x6eb>
400de704:	13cc      	bnez.n	a3, 400de709 <_ZN6tflite12_GLOBAL__N_1L4EvalEP13TfLiteContextP10TfLiteNode+0x74d>
400de706:	056346        	j	400dfc97 <_ZN6tflite12_GLOBAL__N_1L4EvalEP13TfLiteContextP10TfLiteNode+0x1cdb>
400de709:	23a8      	l32i.n	a10, a3, 8
400de70b:	022a26        	beqi	a10, 2, 400de711 <_ZN6tflite12_GLOBAL__N_1L4EvalEP13TfLiteContextP10TfLiteNode+0x755>
400de70e:	01d0c6        	j	400dee55 <_ZN6tflite12_GLOBAL__N_1L4EvalEP13TfLiteContextP10TfLiteNode+0xe99>
400de711:	054686        	j	400dfc2f <_ZN6tflite12_GLOBAL__N_1L4EvalEP13TfLiteContextP10TfLiteNode+0x1c73>
400de714:	00          	.byte	00
400de715:	d8a272        	movi	a7, 0x2d8
400de718:	807270        	add	a7, a2, a7
400de71b:	20b660        	or	a11, a6, a6
400de71e:	20a770        	or	a10, a7, a7
400de721:	074665        	call8	400e5b88 <_ZN6tflite5micro14GetTensorShapeEPK16TfLiteEvalTensor>
400de724:	8f8616        	beqz	a6, 400de020 <_ZN6tflite12_GLOBAL__N_1L4EvalEP13TfLiteContextP10TfLiteNode+0x64>
400de727:	7991d2        	l16si	a13, a1, 242
400de72a:	aca4c2        	movi	a12, 0x4ac
400de72d:	cc1a      	add.n	a12, a12, a1
400de72f:	70a492        	movi	a9, 0x470
400de732:	991a      	add.n	a9, a9, a1
400de734:	4521a2        	l32i	a10, a1, 0x114
400de737:	b0a4e2        	movi	a14, 0x4b0
400de73a:	ee1a      	add.n	a14, a14, a1
400de73c:	6ca452        	movi	a5, 0x46c
400de73f:	a8a4b2        	movi	a11, 0x4a8
400de742:	0cd9      	s32i.n	a13, a12, 0
400de744:	70a4d2        	movi	a13, 0x470
400de747:	dd1a      	add.n	a13, a13, a1
400de749:	551a      	add.n	a5, a5, a1
400de74b:	bb1a      	add.n	a11, a11, a1
400de74d:	7a91f2        	l16si	a15, a1, 244
400de750:	64a442        	movi	a4, 0x464
400de753:	441a      	add.n	a4, a4, a1
400de755:	09a9      	s32i.n	a10, a9, 0
400de757:	b4a492        	movi	a9, 0x4b4
400de75a:	991a      	add.n	a9, a9, a1
400de75c:	0668      	l32i.n	a6, a6, 0
400de75e:	442182        	l32i	a8, a1, 0x110
400de761:	0ef9      	s32i.n	a15, a14, 0
400de763:	0de8      	l32i.n	a14, a13, 0
400de765:	6ca4d2        	movi	a13, 0x46c
400de768:	dd1a      	add.n	a13, a13, a1
400de76a:	0589      	s32i.n	a8, a5, 0
400de76c:	0b69      	s32i.n	a6, a11, 0
400de76e:	68a462        	movi	a6, 0x468
400de771:	b8a4b2        	movi	a11, 0x4b8
400de774:	661a      	add.n	a6, a6, a1
400de776:	bb1a      	add.n	a11, a11, a1
400de778:	7b9152        	l16si	a5, a1, 246
400de77b:	7c9182        	l16si	a8, a1, 248
400de77e:	7591a2        	l16si	a10, a1, 234
400de781:	7691c2        	l16si	a12, a1, 236
400de784:	0dd8      	l32i.n	a13, a13, 0
400de786:	0459      	s32i.n	a5, a4, 0
400de788:	0689      	s32i.n	a8, a6, 0
400de78a:	09a9      	s32i.n	a10, a9, 0
400de78c:	0bc9      	s32i.n	a12, a11, 0
400de78e:	02aed7        	bge	a14, a13, 400de794 <_ZN6tflite12_GLOBAL__N_1L4EvalEP13TfLiteContextP10TfLiteNode+0x7d8>
400de791:	fe22c6        	j	400de020 <_ZN6tflite12_GLOBAL__N_1L4EvalEP13TfLiteContextP10TfLiteNode+0x64>
400de794:	cb2292        	l32i	a9, a2, 0x32c
400de797:	024926        	beqi	a9, 4, 400de79d <_ZN6tflite12_GLOBAL__N_1L4EvalEP13TfLiteContextP10TfLiteNode+0x7e1>
400de79a:	fe2086        	j	400de020 <_ZN6tflite12_GLOBAL__N_1L4EvalEP13TfLiteContextP10TfLiteNode+0x64>
400de79d:	c42292        	l32i	a9, a2, 0x310
400de7a0:	024926        	beqi	a9, 4, 400de7a6 <_ZN6tflite12_GLOBAL__N_1L4EvalEP13TfLiteContextP10TfLiteNode+0x7ea>
400de7a3:	fe1e46        	j	400de020 <_ZN6tflite12_GLOBAL__N_1L4EvalEP13TfLiteContextP10TfLiteNode+0x64>
400de7a6:	0798      	l32i.n	a9, a7, 0
400de7a8:	024926        	beqi	a9, 4, 400de7ae <_ZN6tflite12_GLOBAL__N_1L4EvalEP13TfLiteContextP10TfLiteNode+0x7f2>
400de7ab:	fe1c46        	j	400de020 <_ZN6tflite12_GLOBAL__N_1L4EvalEP13TfLiteContextP10TfLiteNode+0x64>
400de7ae:	24a4e2        	movi	a14, 0x424
400de7b1:	ee1a      	add.n	a14, a14, a1
400de7b3:	cc22f2        	l32i	a15, a2, 0x330
400de7b6:	1798      	l32i.n	a9, a7, 4
400de7b8:	0ef9      	s32i.n	a15, a14, 0
400de7ba:	0219f7        	beq	a9, a15, 400de7c0 <_ZN6tflite12_GLOBAL__N_1L4EvalEP13TfLiteContextP10TfLiteNode+0x804>
400de7bd:	fe17c6        	j	400de020 <_ZN6tflite12_GLOBAL__N_1L4EvalEP13TfLiteContextP10TfLiteNode+0x64>
400de7c0:	28a442        	movi	a4, 0x428
400de7c3:	441a      	add.n	a4, a4, a1
400de7c5:	c52252        	l32i	a5, a2, 0x314
400de7c8:	4798      	l32i.n	a9, a7, 16
400de7ca:	0459      	s32i.n	a5, a4, 0
400de7cc:	cf22a2        	l32i	a10, a2, 0x33c
400de7cf:	021957        	beq	a9, a5, 400de7d5 <_ZN6tflite12_GLOBAL__N_1L4EvalEP13TfLiteContextP10TfLiteNode+0x819>
400de7d2:	fe1286        	j	400de020 <_ZN6tflite12_GLOBAL__N_1L4EvalEP13TfLiteContextP10TfLiteNode+0x64>
400de7d5:	33bc      	beqz.n	a3, 400de80c <_ZN6tflite12_GLOBAL__N_1L4EvalEP13TfLiteContextP10TfLiteNode+0x850>
400de7d7:	f4a292        	movi	a9, 0x2f4
400de7da:	929a      	add.n	a9, a2, a9
400de7dc:	0988      	l32i.n	a8, a9, 0
400de7de:	1b18a6        	blti	a8, 1, 400de7fd <_ZN6tflite12_GLOBAL__N_1L4EvalEP13TfLiteContextP10TfLiteNode+0x841>
400de7e1:	1188e0        	slli	a8, a8, 2
400de7e4:	fcc882        	addi	a8, a8, -4
400de7e7:	418280        	srli	a8, a8, 2
400de7ea:	1b0c      	movi.n	a11, 1
400de7ec:	88ba      	add.n	a8, a8, a11
400de7ee:	068876        	loop	a8, 400de7f8 <_ZN6tflite12_GLOBAL__N_1L4EvalEP13TfLiteContextP10TfLiteNode+0x83c>
400de7f1:	19c8      	l32i.n	a12, a9, 4
400de7f3:	994b      	addi.n	a9, a9, 4
400de7f5:	82bbc0        	mull	a11, a11, a12
400de7f8:	0000c6        	j	400de7ff <_ZN6tflite12_GLOBAL__N_1L4EvalEP13TfLiteContextP10TfLiteNode+0x843>
400de7fb:	00          	.byte	00
400de7fc:	00          	.byte	00
400de7fd:	1b0c      	movi.n	a11, 1
400de7ff:	28a462        	movi	a6, 0x428
400de802:	661a      	add.n	a6, a6, a1
400de804:	0668      	l32i.n	a6, a6, 0
400de806:	0216b7        	beq	a6, a11, 400de80c <_ZN6tflite12_GLOBAL__N_1L4EvalEP13TfLiteContextP10TfLiteNode+0x850>
400de809:	fe04c6        	j	400de020 <_ZN6tflite12_GLOBAL__N_1L4EvalEP13TfLiteContextP10TfLiteNode+0x64>
400de80c:	20a482        	movi	a8, 0x420
400de80f:	881a      	add.n	a8, a8, a1
400de811:	c82292        	l32i	a9, a2, 0x320
400de814:	c0a4d2        	movi	a13, 0x4c0
400de817:	f26a90        	rems	a6, a10, a9
400de81a:	c4a4f2        	movi	a15, 0x4c4
400de81d:	d2aa90        	quos	a10, a10, a9
400de820:	0899      	s32i.n	a9, a8, 0
400de822:	78a452        	movi	a5, 0x478
400de825:	7ca4b2        	movi	a11, 0x47c
400de828:	dd1a      	add.n	a13, a13, a1
400de82a:	ff1a      	add.n	a15, a15, a1
400de82c:	cd22e2        	l32i	a14, a2, 0x334
400de82f:	551a      	add.n	a5, a5, a1
400de831:	bb1a      	add.n	a11, a11, a1
400de833:	ce2242        	l32i	a4, a2, 0x338
400de836:	c62292        	l32i	a9, a2, 0x318
400de839:	c72282        	l32i	a8, a2, 0x31c
400de83c:	0de9      	s32i.n	a14, a13, 0
400de83e:	0f49      	s32i.n	a4, a15, 0
400de840:	0599      	s32i.n	a9, a5, 0
400de842:	0b89      	s32i.n	a8, a11, 0
400de844:	168c      	beqz.n	a6, 400de849 <_ZN6tflite12_GLOBAL__N_1L4EvalEP13TfLiteContextP10TfLiteNode+0x88d>
400de846:	fdf586        	j	400de020 <_ZN6tflite12_GLOBAL__N_1L4EvalEP13TfLiteContextP10TfLiteNode+0x64>
400de849:	28a4c2        	movi	a12, 0x428
400de84c:	cc1a      	add.n	a12, a12, a1
400de84e:	d8a282        	movi	a8, 0x2d8
400de851:	0cc8      	l32i.n	a12, a12, 0
400de853:	828a      	add.n	a8, a2, a8
400de855:	d2dca0        	quos	a13, a12, a10
400de858:	c8a4c2        	movi	a12, 0x4c8
400de85b:	cc1a      	add.n	a12, a12, a1
400de85d:	24a4f2        	movi	a15, 0x424
400de860:	28e8      	l32i.n	a14, a8, 8
400de862:	ff1a      	add.n	a15, a15, a1
400de864:	84a442        	movi	a4, 0x484
400de867:	441a      	add.n	a4, a4, a1
400de869:	065d      	mov.n	a5, a6
400de86b:	3888      	l32i.n	a8, a8, 12
400de86d:	0cd9      	s32i.n	a13, a12, 0
400de86f:	80a4d2        	movi	a13, 0x480
400de872:	dd1a      	add.n	a13, a13, a1
400de874:	0f98      	l32i.n	a9, a15, 0
400de876:	0de9      	s32i.n	a14, a13, 0
400de878:	0489      	s32i.n	a8, a4, 0
400de87a:	0219a6        	blti	a9, 1, 400de880 <_ZN6tflite12_GLOBAL__N_1L4EvalEP13TfLiteContextP10TfLiteNode+0x8c4>
400de87d:	0167c6        	j	400dee20 <_ZN6tflite12_GLOBAL__N_1L4EvalEP13TfLiteContextP10TfLiteNode+0xe64>
400de880:	04d346        	j	400dfbd1 <_ZN6tflite12_GLOBAL__N_1L4EvalEP13TfLiteContextP10TfLiteNode+0x1c15>
400de883:	00          	.byte	00
400de884:	84a492        	movi	a9, 0x484
400de887:	991a      	add.n	a9, a9, a1
400de889:	0998      	l32i.n	a9, a9, 0
400de88b:	2919a6        	blti	a9, 1, 400de8b8 <_ZN6tflite12_GLOBAL__N_1L4EvalEP13TfLiteContextP10TfLiteNode+0x8fc>
400de88e:	b8a4a2        	movi	a10, 0x4b8
400de891:	aa1a      	add.n	a10, a10, a1
400de893:	0aa8      	l32i.n	a10, a10, 0
400de895:	032d      	mov.n	a2, a3
400de897:	60b0a0        	neg	a11, a10
400de89a:	38a4a2        	movi	a10, 0x438
400de89d:	aa1a      	add.n	a10, a10, a1
400de89f:	0ab9      	s32i.n	a11, a10, 0
400de8a1:	b4a4b2        	movi	a11, 0x4b4
400de8a4:	bb1a      	add.n	a11, a11, a1
400de8a6:	053d      	mov.n	a3, a5
400de8a8:	0bb8      	l32i.n	a11, a11, 0
400de8aa:	60c0b0        	neg	a12, a11
400de8ad:	fca4b2        	movi	a11, 0x4fc
400de8b0:	bb1a      	add.n	a11, a11, a1
400de8b2:	0bc9      	s32i.n	a12, a11, 0
400de8b4:	000306        	j	400de8c4 <_ZN6tflite12_GLOBAL__N_1L4EvalEP13TfLiteContextP10TfLiteNode+0x908>
400de8b7:	00          	.byte	00
400de8b8:	331b      	addi.n	a3, a3, 1
400de8ba:	880b      	addi.n	a8, a8, -1
400de8bc:	fc4856        	bnez	a8, 400de884 <_ZN6tflite12_GLOBAL__N_1L4EvalEP13TfLiteContextP10TfLiteNode+0x8c8>
400de8bf:	04c386        	j	400dfbd1 <_ZN6tflite12_GLOBAL__N_1L4EvalEP13TfLiteContextP10TfLiteNode+0x1c15>
400de8c2:	00          	.byte	00
400de8c3:	00          	.byte	00
400de8c4:	fca4c2        	movi	a12, 0x4fc
400de8c7:	cc1a      	add.n	a12, a12, a1
400de8c9:	28a4e2        	movi	a14, 0x428
400de8cc:	0cd8      	l32i.n	a13, a12, 0
400de8ce:	ee1a      	add.n	a14, a14, a1
400de8d0:	2ca4c2        	movi	a12, 0x42c
400de8d3:	cc1a      	add.n	a12, a12, a1
400de8d5:	034d      	mov.n	a4, a3
400de8d7:	0ee8      	l32i.n	a14, a14, 0
400de8d9:	0cd9      	s32i.n	a13, a12, 0
400de8db:	261ee6        	bgei	a14, 1, 400de905 <_ZN6tflite12_GLOBAL__N_1L4EvalEP13TfLiteContextP10TfLiteNode+0x949>
400de8de:	38a4f2        	movi	a15, 0x438
400de8e1:	ff1a      	add.n	a15, a15, a1
400de8e3:	551b      	addi.n	a5, a5, 1
400de8e5:	0f48      	l32i.n	a4, a15, 0
400de8e7:	b0a4f2        	movi	a15, 0x4b0
400de8ea:	ff1a      	add.n	a15, a15, a1
400de8ec:	0ff8      	l32i.n	a15, a15, 0
400de8ee:	44fa      	add.n	a4, a4, a15
400de8f0:	38a4f2        	movi	a15, 0x438
400de8f3:	ff1a      	add.n	a15, a15, a1
400de8f5:	0f49      	s32i.n	a4, a15, 0
400de8f7:	80a442        	movi	a4, 0x480
400de8fa:	441a      	add.n	a4, a4, a1
400de8fc:	0448      	l32i.n	a4, a4, 0
400de8fe:	c29457        	bne	a4, a5, 400de8c4 <_ZN6tflite12_GLOBAL__N_1L4EvalEP13TfLiteContextP10TfLiteNode+0x908>
400de901:	013fc6        	j	400dee04 <_ZN6tflite12_GLOBAL__N_1L4EvalEP13TfLiteContextP10TfLiteNode+0xe48>
400de904:	00          	.byte	00
400de905:	3ca462        	movi	a6, 0x43c
400de908:	661a      	add.n	a6, a6, a1
400de90a:	0659      	s32i.n	a5, a6, 0
400de90c:	90a482        	movi	a8, 0x490
400de90f:	9ca4a2        	movi	a10, 0x49c
400de912:	881a      	add.n	a8, a8, a1
400de914:	aa1a      	add.n	a10, a10, a1
400de916:	0898      	l32i.n	a9, a8, 0
400de918:	50a482        	movi	a8, 0x450
400de91b:	881a      	add.n	a8, a8, a1
400de91d:	045d      	mov.n	a5, a4
400de91f:	034d      	mov.n	a4, a3
400de921:	0ab8      	l32i.n	a11, a10, 0
400de923:	4ca4a2        	movi	a10, 0x44c
400de926:	aa1a      	add.n	a10, a10, a1
400de928:	0899      	s32i.n	a9, a8, 0
400de92a:	0ab9      	s32i.n	a11, a10, 0
400de92c:	c8a4c2        	movi	a12, 0x4c8
400de92f:	78a4d2        	movi	a13, 0x478
400de932:	cc1a      	add.n	a12, a12, a1
400de934:	dd1a      	add.n	a13, a13, a1
400de936:	0cc8      	l32i.n	a12, a12, 0
400de938:	d283c0        	quos	a8, a3, a12
400de93b:	0dd8      	l32i.n	a13, a13, 0
400de93d:	021de6        	bgei	a13, 1, 400de943 <_ZN6tflite12_GLOBAL__N_1L4EvalEP13TfLiteContextP10TfLiteNode+0x987>
400de940:	00eb86        	j	400decf2 <_ZN6tflite12_GLOBAL__N_1L4EvalEP13TfLiteContextP10TfLiteNode+0xd36>
400de943:	20a462        	movi	a6, 0x420
400de946:	661a      	add.n	a6, a6, a1
400de948:	0668      	l32i.n	a6, a6, 0
400de94a:	38a4b2        	movi	a11, 0x438
400de94d:	829680        	mull	a9, a6, a8
400de950:	74a462        	movi	a6, 0x474
400de953:	661a      	add.n	a6, a6, a1
400de955:	dd21f2        	l32i	a15, a1, 0x374
400de958:	48a4e2        	movi	a14, 0x448
400de95b:	bb1a      	add.n	a11, a11, a1
400de95d:	82af20        	mull	a10, a15, a2
400de960:	ee1a      	add.n	a14, a14, a1
400de962:	0bb8      	l32i.n	a11, a11, 0
400de964:	08a582        	movi	a8, 0x508
400de967:	aaba      	add.n	a10, a10, a11
400de969:	881a      	add.n	a8, a8, a1
400de96b:	34a4c2        	movi	a12, 0x434
400de96e:	0699      	s32i.n	a9, a6, 0
400de970:	cc1a      	add.n	a12, a12, a1
400de972:	de21d2        	l32i	a13, a1, 0x378
400de975:	82aad0        	mull	a10, a10, a13
400de978:	0ef9      	s32i.n	a15, a14, 0
400de97a:	94a4e2        	movi	a14, 0x494
400de97d:	ee1a      	add.n	a14, a14, a1
400de97f:	06f8      	l32i.n	a15, a6, 0
400de981:	2ca462        	movi	a6, 0x42c
400de984:	661a      	add.n	a6, a6, a1
400de986:	0668      	l32i.n	a6, a6, 0
400de988:	aa6a      	add.n	a10, a10, a6
400de98a:	0888      	l32i.n	a8, a8, 0
400de98c:	03d892        	addmi	a9, a8, 0x300
400de98f:	0ee8      	l32i.n	a14, a14, 0
400de991:	90ffe0        	addx2	a15, a15, a14
400de994:	f0a4e2        	movi	a14, 0x4f0
400de997:	ee1a      	add.n	a14, a14, a1
400de999:	df2162        	l32i	a6, a1, 0x37c
400de99c:	8286d0        	mull	a8, a6, a13
400de99f:	0cd9      	s32i.n	a13, a12, 0
400de9a1:	82ca60        	mull	a12, a10, a6
400de9a4:	68a4d2        	movi	a13, 0x468
400de9a7:	64a4a2        	movi	a10, 0x464
400de9aa:	dd1a      	add.n	a13, a13, a1
400de9ac:	aa1a      	add.n	a10, a10, a1
400de9ae:	0aa8      	l32i.n	a10, a10, 0
400de9b0:	0dd8      	l32i.n	a13, a13, 0
400de9b2:	0ef9      	s32i.n	a15, a14, 0
400de9b4:	0bed      	mov.n	a14, a11
400de9b6:	54a4b2        	movi	a11, 0x454
400de9b9:	bb1a      	add.n	a11, a11, a1
400de9bb:	82f8d0        	mull	a15, a8, a13
400de9be:	0bc9      	s32i.n	a12, a11, 0
400de9c0:	eca4d2        	movi	a13, 0x4ec
400de9c3:	82b6a0        	mull	a11, a6, a10
400de9c6:	f4a4a2        	movi	a10, 0x4f4
400de9c9:	dd1a      	add.n	a13, a13, a1
400de9cb:	aa1a      	add.n	a10, a10, a1
400de9cd:	0ab9      	s32i.n	a11, a10, 0
400de9cf:	44a4c2        	movi	a12, 0x444
400de9d2:	cc1a      	add.n	a12, a12, a1
400de9d4:	30a4a2        	movi	a10, 0x430
400de9d7:	aa1a      	add.n	a10, a10, a1
400de9d9:	d821b2        	l32i	a11, a1, 0x360
400de9dc:	0df9      	s32i.n	a15, a13, 0
400de9de:	40a4f2        	movi	a15, 0x440
400de9e1:	ff1a      	add.n	a15, a15, a1
400de9e3:	d62182        	l32i	a8, a1, 0x358
400de9e6:	d721d2        	l32i	a13, a1, 0x35c
400de9e9:	0f89      	s32i.n	a8, a15, 0
400de9eb:	828830        	mull	a8, a8, a3
400de9ee:	04fd      	mov.n	a15, a4
400de9f0:	0cd9      	s32i.n	a13, a12, 0
400de9f2:	82ddb0        	mull	a13, a13, a11
400de9f5:	a0a4c2        	movi	a12, 0x4a0
400de9f8:	cc1a      	add.n	a12, a12, a1
400de9fa:	0ab9      	s32i.n	a11, a10, 0
400de9fc:	82b8d0        	mull	a11, a8, a13
400de9ff:	58a4a2        	movi	a10, 0x458
400dea02:	aa1a      	add.n	a10, a10, a1
400dea04:	e8a482        	movi	a8, 0x4e8
400dea07:	0cd9      	s32i.n	a13, a12, 0
400dea09:	8ca4c2        	movi	a12, 0x48c
400dea0c:	cc1a      	add.n	a12, a12, a1
400dea0e:	881a      	add.n	a8, a8, a1
400dea10:	dc21d2        	l32i	a13, a1, 0x370
400dea13:	0cd9      	s32i.n	a13, a12, 0
400dea15:	d521c2        	l32i	a12, a1, 0x354
400dea18:	0ab9      	s32i.n	a11, a10, 0
400dea1a:	20ad20        	or	a10, a13, a2
400dea1d:	e0a4d2        	movi	a13, 0x4e0
400dea20:	dd1a      	add.n	a13, a13, a1
400dea22:	88a4b2        	movi	a11, 0x488
400dea25:	08a9      	s32i.n	a10, a8, 0
400dea27:	208c30        	or	a8, a12, a3
400dea2a:	bb1a      	add.n	a11, a11, a1
400dea2c:	0d89      	s32i.n	a8, a13, 0
400dea2e:	098d      	mov.n	a8, a9
400dea30:	02dd      	mov.n	a13, a2
400dea32:	032d      	mov.n	a2, a3
400dea34:	043d      	mov.n	a3, a4
400dea36:	0bc9      	s32i.n	a12, a11, 0
400dea38:	d0a4b2        	movi	a11, 0x4d0
400dea3b:	14a5c2        	movi	a12, 0x514
400dea3e:	bb1a      	add.n	a11, a11, a1
400dea40:	cc1a      	add.n	a12, a12, a1
400dea42:	b9a8      	l32i.n	a10, a9, 44
400dea44:	d4a492        	movi	a9, 0x4d4
400dea47:	991a      	add.n	a9, a9, a1
400dea49:	4888      	l32i.n	a8, a8, 16
400dea4b:	09a9      	s32i.n	a10, a9, 0
400dea4d:	0b89      	s32i.n	a8, a11, 0
400dea4f:	0c59      	s32i.n	a5, a12, 0
400dea51:	7ca452        	movi	a5, 0x47c
400dea54:	551a      	add.n	a5, a5, a1
400dea56:	0558      	l32i.n	a5, a5, 0
400dea58:	0215e6        	bgei	a5, 1, 400dea5e <_ZN6tflite12_GLOBAL__N_1L4EvalEP13TfLiteContextP10TfLiteNode+0xaa2>
400dea5b:	008e86        	j	400dec99 <_ZN6tflite12_GLOBAL__N_1L4EvalEP13TfLiteContextP10TfLiteNode+0xcdd>
400dea5e:	c0a4a2        	movi	a10, 0x4c0
400dea61:	aa1a      	add.n	a10, a10, a1
400dea63:	0aa8      	l32i.n	a10, a10, 0
400dea65:	318fe0        	srai	a8, a14, 31
400dea68:	881b      	addi.n	a8, a8, 1
400dea6a:	190c      	movi.n	a9, 1
400dea6c:	012ea7        	blt	a14, a10, 400dea71 <_ZN6tflite12_GLOBAL__N_1L4EvalEP13TfLiteContextP10TfLiteNode+0xab5>
400dea6f:	090c      	movi.n	a9, 0
400dea71:	48a452        	movi	a5, 0x448
400dea74:	551a      	add.n	a5, a5, a1
400dea76:	0558      	l32i.n	a5, a5, 0
400dea78:	10c890        	and	a12, a8, a9
400dea7b:	208e50        	or	a8, a14, a5
400dea7e:	dca452        	movi	a5, 0x4dc
400dea81:	551a      	add.n	a5, a5, a1
400dea83:	0589      	s32i.n	a8, a5, 0
400dea85:	40a482        	movi	a8, 0x440
400dea88:	881a      	add.n	a8, a8, a1
400dea8a:	cca4b2        	movi	a11, 0x4cc
400dea8d:	bb1a      	add.n	a11, a11, a1
400dea8f:	0888      	l32i.n	a8, a8, 0
400dea91:	2098f0        	or	a9, a8, a15
400dea94:	bca482        	movi	a8, 0x4bc
400dea97:	881a      	add.n	a8, a8, a1
400dea99:	0899      	s32i.n	a9, a8, 0
400dea9b:	54a492        	movi	a9, 0x454
400dea9e:	991a      	add.n	a9, a9, a1
400deaa0:	0bc9      	s32i.n	a12, a11, 0
400deaa2:	58a4b2        	movi	a11, 0x458
400deaa5:	2ca4c2        	movi	a12, 0x42c
400deaa8:	bb1a      	add.n	a11, a11, a1
400deaaa:	cc1a      	add.n	a12, a12, a1
400deaac:	09a8      	l32i.n	a10, a9, 0
400deaae:	5ca492        	movi	a9, 0x45c
400deab1:	991a      	add.n	a9, a9, a1
400deab3:	0b58      	l32i.n	a5, a11, 0
400deab5:	0c88      	l32i.n	a8, a12, 0
400deab7:	0069a2        	s32i	a10, a9, 0
400deaba:	039d      	mov.n	a9, a3
400deabc:	1a1896        	bltz	a8, 400dec61 <_ZN6tflite12_GLOBAL__N_1L4EvalEP13TfLiteContextP10TfLiteNode+0xca5>
400deabf:	c4a4a2        	movi	a10, 0x4c4
400deac2:	aa1a      	add.n	a10, a10, a1
400deac4:	0aa8      	l32i.n	a10, a10, 0
400deac6:	0228a7        	blt	a8, a10, 400deacc <_ZN6tflite12_GLOBAL__N_1L4EvalEP13TfLiteContextP10TfLiteNode+0xb10>
400deac9:	006506        	j	400dec61 <_ZN6tflite12_GLOBAL__N_1L4EvalEP13TfLiteContextP10TfLiteNode+0xca5>
400deacc:	cca4b2        	movi	a11, 0x4cc
400deacf:	bb1a      	add.n	a11, a11, a1
400dead1:	0bb8      	l32i.n	a11, a11, 0
400dead3:	18ab16        	beqz	a11, 400dec61 <_ZN6tflite12_GLOBAL__N_1L4EvalEP13TfLiteContextP10TfLiteNode+0xca5>
400dead6:	20a4c2        	movi	a12, 0x420
400dead9:	cc1a      	add.n	a12, a12, a1
400deadb:	0cc8      	l32i.n	a12, a12, 0
400deadd:	021ce6        	bgei	a12, 1, 400deae3 <_ZN6tflite12_GLOBAL__N_1L4EvalEP13TfLiteContextP10TfLiteNode+0xb27>
400deae0:	005f46        	j	400dec61 <_ZN6tflite12_GLOBAL__N_1L4EvalEP13TfLiteContextP10TfLiteNode+0xca5>
400deae3:	34a4a2        	movi	a10, 0x434
400deae6:	aa1a      	add.n	a10, a10, a1
400deae8:	0aa8      	l32i.n	a10, a10, 0
400deaea:	20b8a0        	or	a11, a8, a10
400deaed:	d8a4a2        	movi	a10, 0x4d8
400deaf0:	aa1a      	add.n	a10, a10, a1
400deaf2:	0ab9      	s32i.n	a11, a10, 0
400deaf4:	44a4b2        	movi	a11, 0x444
400deaf7:	bb1a      	add.n	a11, a11, a1
400deaf9:	0bb8      	l32i.n	a11, a11, 0
400deafb:	20cb90        	or	a12, a11, a9
400deafe:	e4a4b2        	movi	a11, 0x4e4
400deb01:	bb1a      	add.n	a11, a11, a1
400deb03:	0bc9      	s32i.n	a12, a11, 0
400deb05:	d4a4c2        	movi	a12, 0x4d4
400deb08:	cc1a      	add.n	a12, a12, a1
400deb0a:	0cc8      	l32i.n	a12, a12, 0
400deb0c:	024c26        	beqi	a12, 4, 400deb12 <_ZN6tflite12_GLOBAL__N_1L4EvalEP13TfLiteContextP10TfLiteNode+0xb56>
400deb0f:	fd4346        	j	400de020 <_ZN6tflite12_GLOBAL__N_1L4EvalEP13TfLiteContextP10TfLiteNode+0x64>
400deb12:	d0a4a2        	movi	a10, 0x4d0
400deb15:	aa1a      	add.n	a10, a10, a1
400deb17:	0aa8      	l32i.n	a10, a10, 0
400deb19:	024a26        	beqi	a10, 4, 400deb1f <_ZN6tflite12_GLOBAL__N_1L4EvalEP13TfLiteContextP10TfLiteNode+0xb63>
400deb1c:	fd4006        	j	400de020 <_ZN6tflite12_GLOBAL__N_1L4EvalEP13TfLiteContextP10TfLiteNode+0x64>
400deb1f:	5ca4b2        	movi	a11, 0x45c
400deb22:	bb1a      	add.n	a11, a11, a1
400deb24:	0bc8      	l32i.n	a12, a11, 0
400deb26:	f0a4b2        	movi	a11, 0x4f0
400deb29:	bb1a      	add.n	a11, a11, a1
400deb2b:	0bb8      	l32i.n	a11, a11, 0
400deb2d:	907cb0        	addx2	a7, a12, a11
400deb30:	74a4c2        	movi	a12, 0x474
400deb33:	98a4b2        	movi	a11, 0x498
400deb36:	cc1a      	add.n	a12, a12, a1
400deb38:	bb1a      	add.n	a11, a11, a1
400deb3a:	0ca8      	l32i.n	a10, a12, 0
400deb3c:	f8a4c2        	movi	a12, 0x4f8
400deb3f:	cc1a      	add.n	a12, a12, a1
400deb41:	0bb8      	l32i.n	a11, a11, 0
400deb43:	0ca9      	s32i.n	a10, a12, 0
400deb45:	cb5a      	add.n	a12, a11, a5
400deb47:	05d1b2        	addmi	a11, a1, 0x500
400deb4a:	03ad      	mov.n	a10, a3
400deb4c:	0bc9      	s32i.n	a12, a11, 0
400deb4e:	20a4c2        	movi	a12, 0x420
400deb51:	cc1a      	add.n	a12, a12, a1
400deb53:	0cb8      	l32i.n	a11, a12, 0
400deb55:	60a4c2        	movi	a12, 0x460
400deb58:	cc1a      	add.n	a12, a12, a1
400deb5a:	0cb9      	s32i.n	a11, a12, 0
400deb5c:	1ca5c2        	movi	a12, 0x51c
400deb5f:	cc1a      	add.n	a12, a12, a1
400deb61:	006c52        	s32i	a5, a12, 0
400deb64:	f8a452        	movi	a5, 0x4f8
400deb67:	805510        	add	a5, a5, a1
400deb6a:	05b8      	l32i.n	a11, a5, 0
400deb6c:	e8a4c2        	movi	a12, 0x4e8
400deb6f:	cc1a      	add.n	a12, a12, a1
400deb71:	0cc8      	l32i.n	a12, a12, 0
400deb73:	00dc16        	beqz	a12, 400deb84 <_ZN6tflite12_GLOBAL__N_1L4EvalEP13TfLiteContextP10TfLiteNode+0xbc8>
400deb76:	8ca452        	movi	a5, 0x48c
400deb79:	805510        	add	a5, a5, a1
400deb7c:	0558      	l32i.n	a5, a5, 0
400deb7e:	022d57        	blt	a13, a5, 400deb84 <_ZN6tflite12_GLOBAL__N_1L4EvalEP13TfLiteContextP10TfLiteNode+0xbc8>
400deb81:	fd26c6        	j	400de020 <_ZN6tflite12_GLOBAL__N_1L4EvalEP13TfLiteContextP10TfLiteNode+0x64>
400deb84:	dca4c2        	movi	a12, 0x4dc
400deb87:	cc1a      	add.n	a12, a12, a1
400deb89:	0cc8      	l32i.n	a12, a12, 0
400deb8b:	00dc16        	beqz	a12, 400deb9c <_ZN6tflite12_GLOBAL__N_1L4EvalEP13TfLiteContextP10TfLiteNode+0xbe0>
400deb8e:	48a452        	movi	a5, 0x448
400deb91:	805510        	add	a5, a5, a1
400deb94:	0558      	l32i.n	a5, a5, 0
400deb96:	022e57        	blt	a14, a5, 400deb9c <_ZN6tflite12_GLOBAL__N_1L4EvalEP13TfLiteContextP10TfLiteNode+0xbe0>
400deb99:	fd20c6        	j	400de020 <_ZN6tflite12_GLOBAL__N_1L4EvalEP13TfLiteContextP10TfLiteNode+0x64>
400deb9c:	d8a4c2        	movi	a12, 0x4d8
400deb9f:	cc1a      	add.n	a12, a12, a1
400deba1:	0cc8      	l32i.n	a12, a12, 0
400deba3:	00dc16        	beqz	a12, 400debb4 <_ZN6tflite12_GLOBAL__N_1L4EvalEP13TfLiteContextP10TfLiteNode+0xbf8>
400deba6:	34a452        	movi	a5, 0x434
400deba9:	805510        	add	a5, a5, a1
400debac:	0558      	l32i.n	a5, a5, 0
400debae:	022857        	blt	a8, a5, 400debb4 <_ZN6tflite12_GLOBAL__N_1L4EvalEP13TfLiteContextP10TfLiteNode+0xbf8>
400debb1:	fd1ac6        	j	400de020 <_ZN6tflite12_GLOBAL__N_1L4EvalEP13TfLiteContextP10TfLiteNode+0x64>
400debb4:	20cb60        	or	a12, a11, a6
400debb7:	ac8c      	beqz.n	a12, 400debc5 <_ZN6tflite12_GLOBAL__N_1L4EvalEP13TfLiteContextP10TfLiteNode+0xc09>
400debb9:	002bd6        	bgez	a11, 400debbf <_ZN6tflite12_GLOBAL__N_1L4EvalEP13TfLiteContextP10TfLiteNode+0xc03>
400debbc:	fd1806        	j	400de020 <_ZN6tflite12_GLOBAL__N_1L4EvalEP13TfLiteContextP10TfLiteNode+0x64>
400debbf:	022b67        	blt	a11, a6, 400debc5 <_ZN6tflite12_GLOBAL__N_1L4EvalEP13TfLiteContextP10TfLiteNode+0xc09>
400debc2:	fd1686        	j	400de020 <_ZN6tflite12_GLOBAL__N_1L4EvalEP13TfLiteContextP10TfLiteNode+0x64>
400debc5:	001752        	l16ui	a5, a7, 0
400debc8:	f8a4c2        	movi	a12, 0x4f8
400debcb:	cc1a      	add.n	a12, a12, a1
400debcd:	005c52        	s16i	a5, a12, 0
400debd0:	0020c0        	memw
400debd3:	e0a4c2        	movi	a12, 0x4e0
400debd6:	cc1a      	add.n	a12, a12, a1
400debd8:	0cc8      	l32i.n	a12, a12, 0
400debda:	bc8c      	beqz.n	a12, 400debe9 <_ZN6tflite12_GLOBAL__N_1L4EvalEP13TfLiteContextP10TfLiteNode+0xc2d>
400debdc:	88a452        	movi	a5, 0x488
400debdf:	551a      	add.n	a5, a5, a1
400debe1:	0558      	l32i.n	a5, a5, 0
400debe3:	022257        	blt	a2, a5, 400debe9 <_ZN6tflite12_GLOBAL__N_1L4EvalEP13TfLiteContextP10TfLiteNode+0xc2d>
400debe6:	fd0d86        	j	400de020 <_ZN6tflite12_GLOBAL__N_1L4EvalEP13TfLiteContextP10TfLiteNode+0x64>
400debe9:	bca4c2        	movi	a12, 0x4bc
400debec:	cc1a      	add.n	a12, a12, a1
400debee:	0cc8      	l32i.n	a12, a12, 0
400debf0:	cc8c      	beqz.n	a12, 400dec00 <_ZN6tflite12_GLOBAL__N_1L4EvalEP13TfLiteContextP10TfLiteNode+0xc44>
400debf2:	40a452        	movi	a5, 0x440
400debf5:	805510        	add	a5, a5, a1
400debf8:	0558      	l32i.n	a5, a5, 0
400debfa:	022f57        	blt	a15, a5, 400dec00 <_ZN6tflite12_GLOBAL__N_1L4EvalEP13TfLiteContextP10TfLiteNode+0xc44>
400debfd:	fd07c6        	j	400de020 <_ZN6tflite12_GLOBAL__N_1L4EvalEP13TfLiteContextP10TfLiteNode+0x64>
400dec00:	e4a4c2        	movi	a12, 0x4e4
400dec03:	cc1a      	add.n	a12, a12, a1
400dec05:	0cc8      	l32i.n	a12, a12, 0
400dec07:	00dc16        	beqz	a12, 400dec18 <_ZN6tflite12_GLOBAL__N_1L4EvalEP13TfLiteContextP10TfLiteNode+0xc5c>
400dec0a:	44a452        	movi	a5, 0x444
400dec0d:	805510        	add	a5, a5, a1
400dec10:	0558      	l32i.n	a5, a5, 0
400dec12:	022957        	blt	a9, a5, 400dec18 <_ZN6tflite12_GLOBAL__N_1L4EvalEP13TfLiteContextP10TfLiteNode+0xc5c>
400dec15:	fd01c6        	j	400de020 <_ZN6tflite12_GLOBAL__N_1L4EvalEP13TfLiteContextP10TfLiteNode+0x64>
400dec18:	30a452        	movi	a5, 0x430
400dec1b:	805510        	add	a5, a5, a1
400dec1e:	0558      	l32i.n	a5, a5, 0
400dec20:	20c5a0        	or	a12, a5, a10
400dec23:	005c16        	beqz	a12, 400dec2c <_ZN6tflite12_GLOBAL__N_1L4EvalEP13TfLiteContextP10TfLiteNode+0xc70>
400dec26:	022a57        	blt	a10, a5, 400dec2c <_ZN6tflite12_GLOBAL__N_1L4EvalEP13TfLiteContextP10TfLiteNode+0xc70>
400dec29:	fcfcc6        	j	400de020 <_ZN6tflite12_GLOBAL__N_1L4EvalEP13TfLiteContextP10TfLiteNode+0x64>
400dec2c:	05d152        	addmi	a5, a1, 0x500
400dec2f:	0558      	l32i.n	a5, a5, 0
400dec31:	772b      	addi.n	a7, a7, 2
400dec33:	c5aa      	add.n	a12, a5, a10
400dec35:	f8a452        	movi	a5, 0x4f8
400dec38:	551a      	add.n	a5, a5, a1
400dec3a:	000cc2        	l8ui	a12, a12, 0
400dec3d:	aa1b      	addi.n	a10, a10, 1
400dec3f:	23cc00        	sext	a12, a12, 7
400dec42:	bb1b      	addi.n	a11, a11, 1
400dec44:	001552        	l16ui	a5, a5, 0
400dec47:	d1cc50        	mul16s	a12, a12, a5
400dec4a:	44ca      	add.n	a4, a4, a12
400dec4c:	60a4c2        	movi	a12, 0x460
400dec4f:	cc1a      	add.n	a12, a12, a1
400dec51:	0c58      	l32i.n	a5, a12, 0
400dec53:	550b      	addi.n	a5, a5, -1
400dec55:	0c59      	s32i.n	a5, a12, 0
400dec57:	f11556        	bnez	a5, 400deb6c <_ZN6tflite12_GLOBAL__N_1L4EvalEP13TfLiteContextP10TfLiteNode+0xbb0>
400dec5a:	1ca5a2        	movi	a10, 0x51c
400dec5d:	aa1a      	add.n	a10, a10, a1
400dec5f:	0a58      	l32i.n	a5, a10, 0
400dec61:	64a4b2        	movi	a11, 0x464
400dec64:	bb1a      	add.n	a11, a11, a1
400dec66:	5ca4a2        	movi	a10, 0x45c
400dec69:	aa1a      	add.n	a10, a10, a1
400dec6b:	0bb8      	l32i.n	a11, a11, 0
400dec6d:	30a4c2        	movi	a12, 0x430
400dec70:	88ba      	add.n	a8, a8, a11
400dec72:	cc1a      	add.n	a12, a12, a1
400dec74:	991b      	addi.n	a9, a9, 1
400dec76:	0ab8      	l32i.n	a11, a10, 0
400dec78:	f4a4a2        	movi	a10, 0x4f4
400dec7b:	aa1a      	add.n	a10, a10, a1
400dec7d:	0aa8      	l32i.n	a10, a10, 0
400dec7f:	bbaa      	add.n	a11, a11, a10
400dec81:	5ca4a2        	movi	a10, 0x45c
400dec84:	aa1a      	add.n	a10, a10, a1
400dec86:	0ab9      	s32i.n	a11, a10, 0
400dec88:	7ca4b2        	movi	a11, 0x47c
400dec8b:	bb1a      	add.n	a11, a11, a1
400dec8d:	0cc8      	l32i.n	a12, a12, 0
400dec8f:	55ca      	add.n	a5, a5, a12
400dec91:	0bb8      	l32i.n	a11, a11, 0
400dec93:	021b97        	beq	a11, a9, 400dec99 <_ZN6tflite12_GLOBAL__N_1L4EvalEP13TfLiteContextP10TfLiteNode+0xcdd>
400dec96:	ff8886        	j	400deabc <_ZN6tflite12_GLOBAL__N_1L4EvalEP13TfLiteContextP10TfLiteNode+0xb00>
400dec99:	58a4c2        	movi	a12, 0x458
400dec9c:	cc1a      	add.n	a12, a12, a1
400dec9e:	0c58      	l32i.n	a5, a12, 0
400deca0:	a0a4c2        	movi	a12, 0x4a0
400deca3:	cc1a      	add.n	a12, a12, a1
400deca5:	78a492        	movi	a9, 0x478
400deca8:	991a      	add.n	a9, a9, a1
400decaa:	0cc8      	l32i.n	a12, a12, 0
400decac:	ff1b      	addi.n	a15, a15, 1
400decae:	55ca      	add.n	a5, a5, a12
400decb0:	58a4c2        	movi	a12, 0x458
400decb3:	cc1a      	add.n	a12, a12, a1
400decb5:	0c59      	s32i.n	a5, a12, 0
400decb7:	54a452        	movi	a5, 0x454
400decba:	551a      	add.n	a5, a5, a1
400decbc:	0588      	l32i.n	a8, a5, 0
400decbe:	eca452        	movi	a5, 0x4ec
400decc1:	551a      	add.n	a5, a5, a1
400decc3:	0558      	l32i.n	a5, a5, 0
400decc5:	885a      	add.n	a8, a8, a5
400decc7:	54a452        	movi	a5, 0x454
400decca:	551a      	add.n	a5, a5, a1
400deccc:	0589      	s32i.n	a8, a5, 0
400decce:	68a482        	movi	a8, 0x468
400decd1:	881a      	add.n	a8, a8, a1
400decd3:	0888      	l32i.n	a8, a8, 0
400decd5:	ee8a      	add.n	a14, a14, a8
400decd7:	0998      	l32i.n	a9, a9, 0
400decd9:	0219f7        	beq	a9, a15, 400decdf <_ZN6tflite12_GLOBAL__N_1L4EvalEP13TfLiteContextP10TfLiteNode+0xd23>
400decdc:	ff5c46        	j	400dea51 <_ZN6tflite12_GLOBAL__N_1L4EvalEP13TfLiteContextP10TfLiteNode+0xa95>
400decdf:	14a5a2        	movi	a10, 0x514
400dece2:	aa1a      	add.n	a10, a10, a1
400dece4:	047d      	mov.n	a7, a4
400dece6:	0a58      	l32i.n	a5, a10, 0
400dece8:	034d      	mov.n	a4, a3
400decea:	023d      	mov.n	a3, a2
400decec:	0d2d      	mov.n	a2, a13
400decee:	000086        	j	400decf4 <_ZN6tflite12_GLOBAL__N_1L4EvalEP13TfLiteContextP10TfLiteNode+0xd38>
400decf1:	00          	.byte	00
400decf2:	047d      	mov.n	a7, a4
400decf4:	a4a4b2        	movi	a11, 0x4a4
400decf7:	bb1a      	add.n	a11, a11, a1
400decf9:	0bb8      	l32i.n	a11, a11, 0
400decfb:	6b8c      	beqz.n	a11, 400ded05 <_ZN6tflite12_GLOBAL__N_1L4EvalEP13TfLiteContextP10TfLiteNode+0xd49>
400decfd:	a083b0        	addx4	a8, a3, a11
400ded00:	0888      	l32i.n	a8, a8, 0
400ded02:	807780        	add	a7, a7, a8
400ded05:	4ca4d2        	movi	a13, 0x44c
400ded08:	50a4e2        	movi	a14, 0x450
400ded0b:	80dd10        	add	a13, a13, a1
400ded0e:	80ee10        	add	a14, a14, a1
400ded11:	002dd2        	l32i	a13, a13, 0
400ded14:	07ad      	mov.n	a10, a7
400ded16:	04a562        	movi	a6, 0x504
400ded19:	661a      	add.n	a6, a6, a1
400ded1b:	0ee8      	l32i.n	a14, a14, 0
400ded1d:	0dc8      	l32i.n	a12, a13, 0
400ded1f:	0eb8      	l32i.n	a11, a14, 0
400ded21:	056ce5        	call8	400e43f0 <_ZN6tflite29MultiplyByQuantizedMultiplierElli>
400ded24:	6ca4f2        	movi	a15, 0x46c
400ded27:	ff1a      	add.n	a15, a15, a1
400ded29:	0ff8      	l32i.n	a15, a15, 0
400ded2b:	539fa0        	max	a9, a15, a10
400ded2e:	70a4a2        	movi	a10, 0x470
400ded31:	aa1a      	add.n	a10, a10, a1
400ded33:	0668      	l32i.n	a6, a6, 0
400ded35:	0aa8      	l32i.n	a10, a10, 0
400ded37:	4399a0        	min	a9, a9, a10
400ded3a:	0688      	l32i.n	a8, a6, 0
400ded3c:	024826        	beqi	a8, 4, 400ded42 <_ZN6tflite12_GLOBAL__N_1L4EvalEP13TfLiteContextP10TfLiteNode+0xd86>
400ded3f:	fcb746        	j	400de020 <_ZN6tflite12_GLOBAL__N_1L4EvalEP13TfLiteContextP10TfLiteNode+0x64>
400ded42:	c72182        	l32i	a8, a1, 0x31c
400ded45:	20a820        	or	a10, a8, a2
400ded48:	4a8c      	beqz.n	a10, 400ded50 <_ZN6tflite12_GLOBAL__N_1L4EvalEP13TfLiteContextP10TfLiteNode+0xd94>
400ded4a:	022287        	blt	a2, a8, 400ded50 <_ZN6tflite12_GLOBAL__N_1L4EvalEP13TfLiteContextP10TfLiteNode+0xd94>
400ded4d:	fcb3c6        	j	400de020 <_ZN6tflite12_GLOBAL__N_1L4EvalEP13TfLiteContextP10TfLiteNode+0x64>
400ded50:	3ca4b2        	movi	a11, 0x43c
400ded53:	bb1a      	add.n	a11, a11, a1
400ded55:	c82182        	l32i	a8, a1, 0x320
400ded58:	0bb8      	l32i.n	a11, a11, 0
400ded5a:	20a8b0        	or	a10, a8, a11
400ded5d:	4a8c      	beqz.n	a10, 400ded65 <_ZN6tflite12_GLOBAL__N_1L4EvalEP13TfLiteContextP10TfLiteNode+0xda9>
400ded5f:	022b87        	blt	a11, a8, 400ded65 <_ZN6tflite12_GLOBAL__N_1L4EvalEP13TfLiteContextP10TfLiteNode+0xda9>
400ded62:	fcae86        	j	400de020 <_ZN6tflite12_GLOBAL__N_1L4EvalEP13TfLiteContextP10TfLiteNode+0x64>
400ded65:	c921b2        	l32i	a11, a1, 0x324
400ded68:	20a5b0        	or	a10, a5, a11
400ded6b:	005a16        	beqz	a10, 400ded74 <_ZN6tflite12_GLOBAL__N_1L4EvalEP13TfLiteContextP10TfLiteNode+0xdb8>
400ded6e:	0225b7        	blt	a5, a11, 400ded74 <_ZN6tflite12_GLOBAL__N_1L4EvalEP13TfLiteContextP10TfLiteNode+0xdb8>
400ded71:	fcaac6        	j	400de020 <_ZN6tflite12_GLOBAL__N_1L4EvalEP13TfLiteContextP10TfLiteNode+0x64>
400ded74:	ca21a2        	l32i	a10, a1, 0x328
400ded77:	20ca30        	or	a12, a10, a3
400ded7a:	4c8c      	beqz.n	a12, 400ded82 <_ZN6tflite12_GLOBAL__N_1L4EvalEP13TfLiteContextP10TfLiteNode+0xdc6>
400ded7c:	0223a7        	blt	a3, a10, 400ded82 <_ZN6tflite12_GLOBAL__N_1L4EvalEP13TfLiteContextP10TfLiteNode+0xdc6>
400ded7f:	fca746        	j	400de020 <_ZN6tflite12_GLOBAL__N_1L4EvalEP13TfLiteContextP10TfLiteNode+0x64>
400ded82:	50a4d2        	movi	a13, 0x450
400ded85:	dd1a      	add.n	a13, a13, a1
400ded87:	0dd8      	l32i.n	a13, a13, 0
400ded89:	4ca4f2        	movi	a15, 0x44c
400ded8c:	ed4b      	addi.n	a14, a13, 4
400ded8e:	50a4d2        	movi	a13, 0x450
400ded91:	dd1a      	add.n	a13, a13, a1
400ded93:	0de9      	s32i.n	a14, a13, 0
400ded95:	3ca4e2        	movi	a14, 0x43c
400ded98:	ee1a      	add.n	a14, a14, a1
400ded9a:	828820        	mull	a8, a8, a2
400ded9d:	ff1a      	add.n	a15, a15, a1
400ded9f:	0ee8      	l32i.n	a14, a14, 0
400deda1:	88ea      	add.n	a8, a8, a14
400deda3:	8288b0        	mull	a8, a8, a11
400deda6:	0ff8      	l32i.n	a15, a15, 0
400deda8:	885a      	add.n	a8, a8, a5
400dedaa:	6f4b      	addi.n	a6, a15, 4
400dedac:	4ca4f2        	movi	a15, 0x44c
400dedaf:	ff1a      	add.n	a15, a15, a1
400dedb1:	0f69      	s32i.n	a6, a15, 0
400dedb3:	a8a462        	movi	a6, 0x4a8
400dedb6:	8288a0        	mull	a8, a8, a10
400dedb9:	661a      	add.n	a6, a6, a1
400dedbb:	883a      	add.n	a8, a8, a3
400dedbd:	0668      	l32i.n	a6, a6, 0
400dedbf:	331b      	addi.n	a3, a3, 1
400dedc1:	908860        	addx2	a8, a8, a6
400dedc4:	005892        	s16i	a9, a8, 0
400dedc7:	0020c0        	memw
400dedca:	28a482        	movi	a8, 0x428
400dedcd:	881a      	add.n	a8, a8, a1
400dedcf:	0888      	l32i.n	a8, a8, 0
400dedd1:	021387        	beq	a3, a8, 400dedd7 <_ZN6tflite12_GLOBAL__N_1L4EvalEP13TfLiteContextP10TfLiteNode+0xe1b>
400dedd4:	fed506        	j	400de92c <_ZN6tflite12_GLOBAL__N_1L4EvalEP13TfLiteContextP10TfLiteNode+0x970>
400dedd7:	2ca492        	movi	a9, 0x42c
400dedda:	991a      	add.n	a9, a9, a1
400deddc:	09a8      	l32i.n	a10, a9, 0
400dedde:	aca492        	movi	a9, 0x4ac
400dede1:	991a      	add.n	a9, a9, a1
400dede3:	043d      	mov.n	a3, a4
400dede5:	451b      	addi.n	a4, a5, 1
400dede7:	0998      	l32i.n	a9, a9, 0
400dede9:	aa9a      	add.n	a10, a10, a9
400dedeb:	2ca492        	movi	a9, 0x42c
400dedee:	991a      	add.n	a9, a9, a1
400dedf0:	09a9      	s32i.n	a10, a9, 0
400dedf2:	84a4a2        	movi	a10, 0x484
400dedf5:	aa1a      	add.n	a10, a10, a1
400dedf7:	0aa8      	l32i.n	a10, a10, 0
400dedf9:	0214a7        	beq	a4, a10, 400dedff <_ZN6tflite12_GLOBAL__N_1L4EvalEP13TfLiteContextP10TfLiteNode+0xe43>
400dedfc:	fec306        	j	400de90c <_ZN6tflite12_GLOBAL__N_1L4EvalEP13TfLiteContextP10TfLiteNode+0x950>
400dedff:	0e5d      	mov.n	a5, a14
400dee01:	feb646        	j	400de8de <_ZN6tflite12_GLOBAL__N_1L4EvalEP13TfLiteContextP10TfLiteNode+0x922>
400dee04:	24a4c2        	movi	a12, 0x424
400dee07:	cc1a      	add.n	a12, a12, a1
400dee09:	0cc8      	l32i.n	a12, a12, 0
400dee0b:	035d      	mov.n	a5, a3
400dee0d:	321b      	addi.n	a3, a2, 1
400dee0f:	359c37        	bne	a12, a3, 400dee48 <_ZN6tflite12_GLOBAL__N_1L4EvalEP13TfLiteContextP10TfLiteNode+0xe8c>
400dee12:	036ec6        	j	400dfbd1 <_ZN6tflite12_GLOBAL__N_1L4EvalEP13TfLiteContextP10TfLiteNode+0x1c15>
400dee15:	551b      	addi.n	a5, a5, 1
400dee17:	990b      	addi.n	a9, a9, -1
400dee19:	39cc      	bnez.n	a9, 400dee20 <_ZN6tflite12_GLOBAL__N_1L4EvalEP13TfLiteContextP10TfLiteNode+0xe64>
400dee1b:	036c86        	j	400dfbd1 <_ZN6tflite12_GLOBAL__N_1L4EvalEP13TfLiteContextP10TfLiteNode+0x1c15>
400dee1e:	00          	.byte	00
400dee1f:	00          	.byte	00
400dee20:	80a4d2        	movi	a13, 0x480
400dee23:	dd1a      	add.n	a13, a13, a1
400dee25:	0dd8      	l32i.n	a13, a13, 0
400dee27:	ea1da6        	blti	a13, 1, 400dee15 <_ZN6tflite12_GLOBAL__N_1L4EvalEP13TfLiteContextP10TfLiteNode+0xe59>
400dee2a:	a4a442        	movi	a4, 0x4a4
400dee2d:	441a      	add.n	a4, a4, a1
400dee2f:	d8a282        	movi	a8, 0x2d8
400dee32:	04a5e2        	movi	a14, 0x504
400dee35:	0439      	s32i.n	a3, a4, 0
400dee37:	053d      	mov.n	a3, a5
400dee39:	065d      	mov.n	a5, a6
400dee3b:	08a562        	movi	a6, 0x508
400dee3e:	f28a      	add.n	a15, a2, a8
400dee40:	ee1a      	add.n	a14, a14, a1
400dee42:	661a      	add.n	a6, a6, a1
400dee44:	0ef9      	s32i.n	a15, a14, 0
400dee46:	0629      	s32i.n	a2, a6, 0
400dee48:	24a492        	movi	a9, 0x424
400dee4b:	991a      	add.n	a9, a9, a1
400dee4d:	0998      	l32i.n	a9, a9, 0
400dee4f:	c08930        	sub	a8, a9, a3
400dee52:	fe8b86        	j	400de884 <_ZN6tflite12_GLOBAL__N_1L4EvalEP13TfLiteContextP10TfLiteNode+0x8c8>
400dee55:	024a26        	beqi	a10, 4, 400dee5b <_ZN6tflite12_GLOBAL__N_1L4EvalEP13TfLiteContextP10TfLiteNode+0xe9f>
400dee58:	01f706        	j	400df638 <_ZN6tflite12_GLOBAL__N_1L4EvalEP13TfLiteContextP10TfLiteNode+0x167c>
400dee5b:	40c122        	addi	a2, a1, 64
400dee5e:	05cd      	mov.n	a12, a5
400dee60:	0dbd      	mov.n	a11, a13
400dee62:	70c2a2        	addi	a10, a2, 112
400dee65:	066b65        	call8	400e551c <_ZN6tflite19ConvParamsQuantizedERK16TfLiteConvParamsRKNS_10OpDataConvE>
400dee68:	20a4a2        	movi	a10, 0x420
400dee6b:	95d8      	l32i.n	a13, a5, 36
400dee6d:	aa1a      	add.n	a10, a10, a1
400dee6f:	a4a4c2        	movi	a12, 0x4a4
400dee72:	a8a4e2        	movi	a14, 0x4a8
400dee75:	02d242        	addmi	a4, a2, 0x200
400dee78:	a558      	l32i.n	a5, a5, 40
400dee7a:	cc1a      	add.n	a12, a12, a1
400dee7c:	ee1a      	add.n	a14, a14, a1
400dee7e:	0ab8      	l32i.n	a11, a10, 0
400dee80:	bca0a2        	movi	a10, 188
400dee83:	a4aa      	add.n	a10, a4, a10
400dee85:	0e59      	s32i.n	a5, a14, 0
400dee87:	006cd2        	s32i	a13, a12, 0
400dee8a:	06cfe5        	call8	400e5b88 <_ZN6tflite5micro14GetTensorShapeEPK16TfLiteEvalTensor>
400dee8d:	20a4f2        	movi	a15, 0x420
400dee90:	ff1a      	add.n	a15, a15, a1
400dee92:	a0a0a2        	movi	a10, 160
400dee95:	0ff8      	l32i.n	a15, a15, 0
400dee97:	07bd      	mov.n	a11, a7
400dee99:	a4aa      	add.n	a10, a4, a10
400dee9b:	0f58      	l32i.n	a5, a15, 0
400dee9d:	aca4f2        	movi	a15, 0x4ac
400deea0:	ff1a      	add.n	a15, a15, a1
400deea2:	0f59      	s32i.n	a5, a15, 0
400deea4:	06ce25        	call8	400e5b88 <_ZN6tflite5micro14GetTensorShapeEPK16TfLiteEvalTensor>
400deea7:	17cc      	bnez.n	a7, 400deeac <_ZN6tflite12_GLOBAL__N_1L4EvalEP13TfLiteContextP10TfLiteNode+0xef0>
400deea9:	fc5cc6        	j	400de020 <_ZN6tflite12_GLOBAL__N_1L4EvalEP13TfLiteContextP10TfLiteNode+0x64>
400deeac:	b0a482        	movi	a8, 0x4b0
400deeaf:	881a      	add.n	a8, a8, a1
400deeb1:	0798      	l32i.n	a9, a7, 0
400deeb3:	84a0a2        	movi	a10, 132
400deeb6:	03bd      	mov.n	a11, a3
400deeb8:	a4aa      	add.n	a10, a4, a10
400deeba:	0899      	s32i.n	a9, a8, 0
400deebc:	06cca5        	call8	400e5b88 <_ZN6tflite5micro14GetTensorShapeEPK16TfLiteEvalTensor>
400deebf:	40a4c2        	movi	a12, 0x440
400deec2:	cc1a      	add.n	a12, a12, a1
400deec4:	06bd      	mov.n	a11, a6
400deec6:	0338      	l32i.n	a3, a3, 0
400deec8:	68c4a2        	addi	a10, a4, 104
400deecb:	0c39      	s32i.n	a3, a12, 0
400deecd:	06cba5        	call8	400e5b88 <_ZN6tflite5micro14GetTensorShapeEPK16TfLiteEvalTensor>
400deed0:	16cc      	bnez.n	a6, 400deed5 <_ZN6tflite12_GLOBAL__N_1L4EvalEP13TfLiteContextP10TfLiteNode+0xf19>
400deed2:	fc5286        	j	400de020 <_ZN6tflite12_GLOBAL__N_1L4EvalEP13TfLiteContextP10TfLiteNode+0x64>
400deed5:	b4a452        	movi	a5, 0x4b4
400deed8:	551a      	add.n	a5, a5, a1
400deeda:	0668      	l32i.n	a6, a6, 0
400deedc:	84a4f2        	movi	a15, 0x484
400deedf:	ff1a      	add.n	a15, a15, a1
400deee1:	80a4d2        	movi	a13, 0x480
400deee4:	dd1a      	add.n	a13, a13, a1
400deee6:	372132        	l32i	a3, a1, 220
400deee9:	74a492        	movi	a9, 0x474
400deeec:	78a4b2        	movi	a11, 0x478
400deeef:	991a      	add.n	a9, a9, a1
400deef1:	bb1a      	add.n	a11, a11, a1
400deef3:	0569      	s32i.n	a6, a5, 0
400deef5:	c0a462        	movi	a6, 0x4c0
400deef8:	84a452        	movi	a5, 0x484
400deefb:	661a      	add.n	a6, a6, a1
400deefd:	551a      	add.n	a5, a5, a1
400deeff:	5d9182        	l16si	a8, a1, 186
400def02:	0f39      	s32i.n	a3, a15, 0
400def04:	c4a4f2        	movi	a15, 0x4c4
400def07:	ff1a      	add.n	a15, a15, a1
400def09:	3621e2        	l32i	a14, a1, 216
400def0c:	0689      	s32i.n	a8, a6, 0
400def0e:	0568      	l32i.n	a6, a5, 0
400def10:	80a452        	movi	a5, 0x480
400def13:	551a      	add.n	a5, a5, a1
400def15:	0de9      	s32i.n	a14, a13, 0
400def17:	7ca4d2        	movi	a13, 0x47c
400def1a:	dd1a      	add.n	a13, a13, a1
400def1c:	5e91a2        	l16si	a10, a1, 188
400def1f:	5f91c2        	l16si	a12, a1, 190
400def22:	6091e2        	l16si	a14, a1, 192
400def25:	599132        	l16si	a3, a1, 178
400def28:	0558      	l32i.n	a5, a5, 0
400def2a:	0de9      	s32i.n	a14, a13, 0
400def2c:	09a9      	s32i.n	a10, a9, 0
400def2e:	0bc9      	s32i.n	a12, a11, 0
400def30:	0f39      	s32i.n	a3, a15, 0
400def32:	5a91d2        	l16si	a13, a1, 180
400def35:	02a657        	bge	a6, a5, 400def3b <_ZN6tflite12_GLOBAL__N_1L4EvalEP13TfLiteContextP10TfLiteNode+0xf7f>
400def38:	fc3906        	j	400de020 <_ZN6tflite12_GLOBAL__N_1L4EvalEP13TfLiteContextP10TfLiteNode+0x64>
400def3b:	af2282        	l32i	a8, a2, 0x2bc
400def3e:	024826        	beqi	a8, 4, 400def44 <_ZN6tflite12_GLOBAL__N_1L4EvalEP13TfLiteContextP10TfLiteNode+0xf88>
400def41:	fc36c6        	j	400de020 <_ZN6tflite12_GLOBAL__N_1L4EvalEP13TfLiteContextP10TfLiteNode+0x64>
400def44:	282492        	l32i	a9, a4, 160
400def47:	024926        	beqi	a9, 4, 400def4d <_ZN6tflite12_GLOBAL__N_1L4EvalEP13TfLiteContextP10TfLiteNode+0xf91>
400def4a:	fc3486        	j	400de020 <_ZN6tflite12_GLOBAL__N_1L4EvalEP13TfLiteContextP10TfLiteNode+0x64>
400def4d:	1a2492        	l32i	a9, a4, 104
400def50:	024926        	beqi	a9, 4, 400def56 <_ZN6tflite12_GLOBAL__N_1L4EvalEP13TfLiteContextP10TfLiteNode+0xf9a>
400def53:	fc3246        	j	400de020 <_ZN6tflite12_GLOBAL__N_1L4EvalEP13TfLiteContextP10TfLiteNode+0x64>
400def56:	64a462        	movi	a6, 0x464
400def59:	661a      	add.n	a6, a6, a1
400def5b:	302492        	l32i	a9, a4, 192
400def5e:	0699      	s32i.n	a9, a6, 0
400def60:	06a8      	l32i.n	a10, a6, 0
400def62:	1b2492        	l32i	a9, a4, 108
400def65:	0219a7        	beq	a9, a10, 400def6b <_ZN6tflite12_GLOBAL__N_1L4EvalEP13TfLiteContextP10TfLiteNode+0xfaf>
400def68:	fc2d06        	j	400de020 <_ZN6tflite12_GLOBAL__N_1L4EvalEP13TfLiteContextP10TfLiteNode+0x64>
400def6b:	2ca4b2        	movi	a11, 0x42c
400def6e:	bb1a      	add.n	a11, a11, a1
400def70:	2924c2        	l32i	a12, a4, 164
400def73:	1e2492        	l32i	a9, a4, 120
400def76:	0bc9      	s32i.n	a12, a11, 0
400def78:	3324a2        	l32i	a10, a4, 204
400def7b:	0219c7        	beq	a9, a12, 400def81 <_ZN6tflite12_GLOBAL__N_1L4EvalEP13TfLiteContextP10TfLiteNode+0xfc5>
400def7e:	fc2786        	j	400de020 <_ZN6tflite12_GLOBAL__N_1L4EvalEP13TfLiteContextP10TfLiteNode+0x64>
400def81:	40a4e2        	movi	a14, 0x440
400def84:	ee1a      	add.n	a14, a14, a1
400def86:	0ee8      	l32i.n	a14, a14, 0
400def88:	4ebc      	beqz.n	a14, 400defc0 <_ZN6tflite12_GLOBAL__N_1L4EvalEP13TfLiteContextP10TfLiteNode+0x1004>
400def8a:	212482        	l32i	a8, a4, 132
400def8d:	2018a6        	blti	a8, 1, 400defb1 <_ZN6tflite12_GLOBAL__N_1L4EvalEP13TfLiteContextP10TfLiteNode+0xff5>
400def90:	1188e0        	slli	a8, a8, 2
400def93:	fcc882        	addi	a8, a8, -4
400def96:	418280        	srli	a8, a8, 2
400def99:	84a292        	movi	a9, 0x284
400def9c:	1b0c      	movi.n	a11, 1
400def9e:	929a      	add.n	a9, a2, a9
400defa0:	88ba      	add.n	a8, a8, a11
400defa2:	068876        	loop	a8, 400defac <_ZN6tflite12_GLOBAL__N_1L4EvalEP13TfLiteContextP10TfLiteNode+0xff0>
400defa5:	19c8      	l32i.n	a12, a9, 4
400defa7:	994b      	addi.n	a9, a9, 4
400defa9:	82bbc0        	mull	a11, a11, a12
400defac:	0000c6        	j	400defb3 <_ZN6tflite12_GLOBAL__N_1L4EvalEP13TfLiteContextP10TfLiteNode+0xff7>
400defaf:	00          	.byte	00
400defb0:	00          	.byte	00
400defb1:	1b0c      	movi.n	a11, 1
400defb3:	2ca4f2        	movi	a15, 0x42c
400defb6:	ff1a      	add.n	a15, a15, a1
400defb8:	0ff8      	l32i.n	a15, a15, 0
400defba:	021bf7        	beq	a11, a15, 400defc0 <_ZN6tflite12_GLOBAL__N_1L4EvalEP13TfLiteContextP10TfLiteNode+0x1004>
400defbd:	fc17c6        	j	400de020 <_ZN6tflite12_GLOBAL__N_1L4EvalEP13TfLiteContextP10TfLiteNode+0x64>
400defc0:	28a432        	movi	a3, 0x428
400defc3:	331a      	add.n	a3, a3, a1
400defc5:	ac2242        	l32i	a4, a2, 0x2b0
400defc8:	c8a462        	movi	a6, 0x4c8
400defcb:	045d      	mov.n	a5, a4
400defcd:	cca4b2        	movi	a11, 0x4cc
400defd0:	88a4e2        	movi	a14, 0x488
400defd3:	0349      	s32i.n	a4, a3, 0
400defd5:	f24a40        	rems	a4, a10, a4
400defd8:	8ca432        	movi	a3, 0x48c
400defdb:	d2aa50        	quos	a10, a10, a5
400defde:	661a      	add.n	a6, a6, a1
400defe0:	b12292        	l32i	a9, a2, 0x2c4
400defe3:	bb1a      	add.n	a11, a11, a1
400defe5:	ee1a      	add.n	a14, a14, a1
400defe7:	331a      	add.n	a3, a3, a1
400defe9:	b222c2        	l32i	a12, a2, 0x2c8
400defec:	aa22f2        	l32i	a15, a2, 0x2a8
400defef:	ab2252        	l32i	a5, a2, 0x2ac
400deff2:	0699      	s32i.n	a9, a6, 0
400deff4:	0bc9      	s32i.n	a12, a11, 0
400deff6:	0ef9      	s32i.n	a15, a14, 0
400deff8:	0359      	s32i.n	a5, a3, 0
400deffa:	148c      	beqz.n	a4, 400defff <_ZN6tflite12_GLOBAL__N_1L4EvalEP13TfLiteContextP10TfLiteNode+0x1043>
400deffc:	fc0806        	j	400de020 <_ZN6tflite12_GLOBAL__N_1L4EvalEP13TfLiteContextP10TfLiteNode+0x64>
400defff:	2ca462        	movi	a6, 0x42c
400df002:	661a      	add.n	a6, a6, a1
400df004:	64a4c2        	movi	a12, 0x464
400df007:	0668      	l32i.n	a6, a6, 0
400df009:	90a4b2        	movi	a11, 0x490
400df00c:	d296a0        	quos	a9, a6, a10
400df00f:	d0a462        	movi	a6, 0x4d0
400df012:	661a      	add.n	a6, a6, a1
400df014:	9c22a2        	l32i	a10, a2, 0x270
400df017:	cc1a      	add.n	a12, a12, a1
400df019:	bb1a      	add.n	a11, a11, a1
400df01b:	9d2282        	l32i	a8, a2, 0x274
400df01e:	0699      	s32i.n	a9, a6, 0
400df020:	4ca492        	movi	a9, 0x44c
400df023:	991a      	add.n	a9, a9, a1
400df025:	0cc8      	l32i.n	a12, a12, 0
400df027:	09a9      	s32i.n	a10, a9, 0
400df029:	0b89      	s32i.n	a8, a11, 0
400df02b:	021ca6        	blti	a12, 1, 400df031 <_ZN6tflite12_GLOBAL__N_1L4EvalEP13TfLiteContextP10TfLiteNode+0x1075>
400df02e:	017a86        	j	400df61c <_ZN6tflite12_GLOBAL__N_1L4EvalEP13TfLiteContextP10TfLiteNode+0x1660>
400df031:	02e706        	j	400dfbd1 <_ZN6tflite12_GLOBAL__N_1L4EvalEP13TfLiteContextP10TfLiteNode+0x1c15>
400df034:	00          	.byte	00
400df035:	a0a4d2        	movi	a13, 0x4a0
400df038:	dd1a      	add.n	a13, a13, a1
400df03a:	006d22        	s32i	a2, a13, 0
400df03d:	fca4e2        	movi	a14, 0x4fc
400df040:	ee1a      	add.n	a14, a14, a1
400df042:	24a432        	movi	a3, 0x424
400df045:	331a      	add.n	a3, a3, a1
400df047:	0ef8      	l32i.n	a15, a14, 0
400df049:	20a4e2        	movi	a14, 0x420
400df04c:	ee1a      	add.n	a14, a14, a1
400df04e:	046d      	mov.n	a6, a4
400df050:	0ef9      	s32i.n	a15, a14, 0
400df052:	0349      	s32i.n	a4, a3, 0
400df054:	4ca442        	movi	a4, 0x44c
400df057:	90a492        	movi	a9, 0x490
400df05a:	441a      	add.n	a4, a4, a1
400df05c:	991a      	add.n	a9, a9, a1
400df05e:	0448      	l32i.n	a4, a4, 0
400df060:	c08460        	sub	a8, a4, a6
400df063:	0998      	l32i.n	a9, a9, 0
400df065:	2c19e6        	bgei	a9, 1, 400df095 <_ZN6tflite12_GLOBAL__N_1L4EvalEP13TfLiteContextP10TfLiteNode+0x10d9>
400df068:	20a4a2        	movi	a10, 0x420
400df06b:	aa1a      	add.n	a10, a10, a1
400df06d:	0ab8      	l32i.n	a11, a10, 0
400df06f:	74a4a2        	movi	a10, 0x474
400df072:	aa1a      	add.n	a10, a10, a1
400df074:	661b      	addi.n	a6, a6, 1
400df076:	0aa8      	l32i.n	a10, a10, 0
400df078:	bbaa      	add.n	a11, a11, a10
400df07a:	20a4a2        	movi	a10, 0x420
400df07d:	aa1a      	add.n	a10, a10, a1
400df07f:	0ab9      	s32i.n	a11, a10, 0
400df081:	4ca4b2        	movi	a11, 0x44c
400df084:	bb1a      	add.n	a11, a11, a1
400df086:	0bb8      	l32i.n	a11, a11, 0
400df088:	c89b67        	bne	a11, a6, 400df054 <_ZN6tflite12_GLOBAL__N_1L4EvalEP13TfLiteContextP10TfLiteNode+0x1098>
400df08b:	24a4c2        	movi	a12, 0x424
400df08e:	cc1a      	add.n	a12, a12, a1
400df090:	0c48      	l32i.n	a4, a12, 0
400df092:	015d06        	j	400df60a <_ZN6tflite12_GLOBAL__N_1L4EvalEP13TfLiteContextP10TfLiteNode+0x164e>
400df095:	20a4d2        	movi	a13, 0x420
400df098:	dd1a      	add.n	a13, a13, a1
400df09a:	002d92        	l32i	a9, a13, 0
400df09d:	3a8876        	loop	a8, 400df0db <_ZN6tflite12_GLOBAL__N_1L4EvalEP13TfLiteContextP10TfLiteNode+0x111f>
400df0a0:	2ca4e2        	movi	a14, 0x42c
400df0a3:	ee1a      	add.n	a14, a14, a1
400df0a5:	0ee8      	l32i.n	a14, a14, 0
400df0a7:	251ea6        	blti	a14, 1, 400df0d0 <_ZN6tflite12_GLOBAL__N_1L4EvalEP13TfLiteContextP10TfLiteNode+0x1114>
400df0aa:	c4a432        	movi	a3, 0x4c4
400df0ad:	331a      	add.n	a3, a3, a1
400df0af:	0338      	l32i.n	a3, a3, 0
400df0b1:	20a4f2        	movi	a15, 0x420
400df0b4:	604030        	neg	a4, a3
400df0b7:	38a432        	movi	a3, 0x438
400df0ba:	331a      	add.n	a3, a3, a1
400df0bc:	0349      	s32i.n	a4, a3, 0
400df0be:	24a442        	movi	a4, 0x424
400df0c1:	441a      	add.n	a4, a4, a1
400df0c3:	ff1a      	add.n	a15, a15, a1
400df0c5:	053d      	mov.n	a3, a5
400df0c7:	0478      	l32i.n	a7, a4, 0
400df0c9:	064d      	mov.n	a4, a6
400df0cb:	0f99      	s32i.n	a9, a15, 0
400df0cd:	000506        	j	400df0e5 <_ZN6tflite12_GLOBAL__N_1L4EvalEP13TfLiteContextP10TfLiteNode+0x1129>
400df0d0:	74a4a2        	movi	a10, 0x474
400df0d3:	aa1a      	add.n	a10, a10, a1
400df0d5:	0aa8      	l32i.n	a10, a10, 0
400df0d7:	661b      	addi.n	a6, a6, 1
400df0d9:	99aa      	add.n	a9, a9, a10
400df0db:	24a4b2        	movi	a11, 0x424
400df0de:	bb1a      	add.n	a11, a11, a1
400df0e0:	0b48      	l32i.n	a4, a11, 0
400df0e2:	014906        	j	400df60a <_ZN6tflite12_GLOBAL__N_1L4EvalEP13TfLiteContextP10TfLiteNode+0x164e>
400df0e5:	a4a4c2        	movi	a12, 0x4a4
400df0e8:	a8a4e2        	movi	a14, 0x4a8
400df0eb:	cc1a      	add.n	a12, a12, a1
400df0ed:	ee1a      	add.n	a14, a14, a1
400df0ef:	24a452        	movi	a5, 0x424
400df0f2:	0cd8      	l32i.n	a13, a12, 0
400df0f4:	551a      	add.n	a5, a5, a1
400df0f6:	60a4c2        	movi	a12, 0x460
400df0f9:	cc1a      	add.n	a12, a12, a1
400df0fb:	072d      	mov.n	a2, a7
400df0fd:	0ef8      	l32i.n	a15, a14, 0
400df0ff:	3ca4e2        	movi	a14, 0x43c
400df102:	ee1a      	add.n	a14, a14, a1
400df104:	0558      	l32i.n	a5, a5, 0
400df106:	006cd2        	s32i	a13, a12, 0
400df109:	006ef2        	s32i	a15, a14, 0
400df10c:	d0a462        	movi	a6, 0x4d0
400df10f:	88a492        	movi	a9, 0x488
400df112:	661a      	add.n	a6, a6, a1
400df114:	991a      	add.n	a9, a9, a1
400df116:	0668      	l32i.n	a6, a6, 0
400df118:	d28560        	quos	a8, a5, a6
400df11b:	0998      	l32i.n	a9, a9, 0
400df11d:	0219e6        	bgei	a9, 1, 400df123 <_ZN6tflite12_GLOBAL__N_1L4EvalEP13TfLiteContextP10TfLiteNode+0x1167>
400df120:	00f446        	j	400df4f5 <_ZN6tflite12_GLOBAL__N_1L4EvalEP13TfLiteContextP10TfLiteNode+0x1539>
400df123:	28a4c2        	movi	a12, 0x428
400df126:	cc1a      	add.n	a12, a12, a1
400df128:	0cc8      	l32i.n	a12, a12, 0
400df12a:	5ca4a2        	movi	a10, 0x45c
400df12d:	82dc80        	mull	a13, a12, a8
400df130:	20a4e2        	movi	a14, 0x420
400df133:	50a4c2        	movi	a12, 0x450
400df136:	c121b2        	l32i	a11, a1, 0x304
400df139:	cc1a      	add.n	a12, a12, a1
400df13b:	aa1a      	add.n	a10, a10, a1
400df13d:	ee1a      	add.n	a14, a14, a1
400df13f:	aca482        	movi	a8, 0x4ac
400df142:	0ab9      	s32i.n	a11, a10, 0
400df144:	82ab30        	mull	a10, a11, a3
400df147:	881a      	add.n	a8, a8, a1
400df149:	34a4f2        	movi	a15, 0x434
400df14c:	ff1a      	add.n	a15, a15, a1
400df14e:	0ee8      	l32i.n	a14, a14, 0
400df150:	aaea      	add.n	a10, a10, a14
400df152:	0e7d      	mov.n	a7, a14
400df154:	24a4e2        	movi	a14, 0x424
400df157:	0cd9      	s32i.n	a13, a12, 0
400df159:	a0a4d2        	movi	a13, 0x4a0
400df15c:	dd1a      	add.n	a13, a13, a1
400df15e:	ee1a      	add.n	a14, a14, a1
400df160:	c22162        	l32i	a6, a1, 0x308
400df163:	82aa60        	mull	a10, a10, a6
400df166:	0cb8      	l32i.n	a11, a12, 0
400df168:	38a4c2        	movi	a12, 0x438
400df16b:	cc1a      	add.n	a12, a12, a1
400df16d:	0888      	l32i.n	a8, a8, 0
400df16f:	90bb80        	addx2	a11, a11, a8
400df172:	eca482        	movi	a8, 0x4ec
400df175:	881a      	add.n	a8, a8, a1
400df177:	0dd8      	l32i.n	a13, a13, 0
400df179:	02dd92        	addmi	a9, a13, 0x200
400df17c:	0cc8      	l32i.n	a12, a12, 0
400df17e:	aaca      	add.n	a10, a10, a12
400df180:	0ed8      	l32i.n	a13, a14, 0
400df182:	7ca4e2        	movi	a14, 0x47c
400df185:	ee1a      	add.n	a14, a14, a1
400df187:	0f69      	s32i.n	a6, a15, 0
400df189:	c321f2        	l32i	a15, a1, 0x30c
400df18c:	82caf0        	mull	a12, a10, a15
400df18f:	78a4a2        	movi	a10, 0x478
400df192:	aa1a      	add.n	a10, a10, a1
400df194:	0ee8      	l32i.n	a14, a14, 0
400df196:	08b9      	s32i.n	a11, a8, 0
400df198:	828f60        	mull	a8, a15, a6
400df19b:	44a4b2        	movi	a11, 0x444
400df19e:	8268e0        	mull	a6, a8, a14
400df1a1:	f4a4e2        	movi	a14, 0x4f4
400df1a4:	0aa8      	l32i.n	a10, a10, 0
400df1a6:	bb1a      	add.n	a11, a11, a1
400df1a8:	ee1a      	add.n	a14, a14, a1
400df1aa:	ba2182        	l32i	a8, a1, 0x2e8
400df1ad:	0bc9      	s32i.n	a12, a11, 0
400df1af:	82bfa0        	mull	a11, a15, a10
400df1b2:	bca4a2        	movi	a10, 0x4bc
400df1b5:	aa1a      	add.n	a10, a10, a1
400df1b7:	0e69      	s32i.n	a6, a14, 0
400df1b9:	54a462        	movi	a6, 0x454
400df1bc:	661a      	add.n	a6, a6, a1
400df1be:	0e0c      	movi.n	a14, 0
400df1c0:	0689      	s32i.n	a8, a6, 0
400df1c2:	58a462        	movi	a6, 0x458
400df1c5:	661a      	add.n	a6, a6, a1
400df1c7:	828850        	mull	a8, a8, a5
400df1ca:	0ab9      	s32i.n	a11, a10, 0
400df1cc:	30a4b2        	movi	a11, 0x430
400df1cf:	bb1a      	add.n	a11, a11, a1
400df1d1:	bb21a2        	l32i	a10, a1, 0x2ec
400df1d4:	06a9      	s32i.n	a10, a6, 0
400df1d6:	bc2162        	l32i	a6, a1, 0x2f0
400df1d9:	0b69      	s32i.n	a6, a11, 0
400df1db:	826a60        	mull	a6, a10, a6
400df1de:	9ca4a2        	movi	a10, 0x49c
400df1e1:	aa1a      	add.n	a10, a10, a1
400df1e3:	82b860        	mull	a11, a8, a6
400df1e6:	0a69      	s32i.n	a6, a10, 0
400df1e8:	68a4a2        	movi	a10, 0x468
400df1eb:	aa1a      	add.n	a10, a10, a1
400df1ed:	98a462        	movi	a6, 0x498
400df1f0:	661a      	add.n	a6, a6, a1
400df1f2:	c02182        	l32i	a8, a1, 0x300
400df1f5:	0ab9      	s32i.n	a11, a10, 0
400df1f7:	e8a4a2        	movi	a10, 0x4e8
400df1fa:	20b830        	or	a11, a8, a3
400df1fd:	aa1a      	add.n	a10, a10, a1
400df1ff:	0689      	s32i.n	a8, a6, 0
400df201:	94a462        	movi	a6, 0x494
400df204:	661a      	add.n	a6, a6, a1
400df206:	b92182        	l32i	a8, a1, 0x2e4
400df209:	0ab9      	s32i.n	a11, a10, 0
400df20b:	e0a4a2        	movi	a10, 0x4e0
400df20e:	20b850        	or	a11, a8, a5
400df211:	aa1a      	add.n	a10, a10, a1
400df213:	0689      	s32i.n	a8, a6, 0
400df215:	098d      	mov.n	a8, a9
400df217:	dca462        	movi	a6, 0x4dc
400df21a:	661a      	add.n	a6, a6, a1
400df21c:	0ab9      	s32i.n	a11, a10, 0
400df21e:	04a5b2        	movi	a11, 0x504
400df221:	bb1a      	add.n	a11, a11, a1
400df223:	d8a4a2        	movi	a10, 0x4d8
400df226:	aa1a      	add.n	a10, a10, a1
400df228:	2f2992        	l32i	a9, a9, 188
400df22b:	282882        	l32i	a8, a8, 160
400df22e:	0b49      	s32i.n	a4, a11, 0
400df230:	0f4d      	mov.n	a4, a15
400df232:	08a5f2        	movi	a15, 0x508
400df235:	ff1a      	add.n	a15, a15, a1
400df237:	0699      	s32i.n	a9, a6, 0
400df239:	056d      	mov.n	a6, a5
400df23b:	0e5d      	mov.n	a5, a14
400df23d:	0f29      	s32i.n	a2, a15, 0
400df23f:	0e2d      	mov.n	a2, a14
400df241:	006a82        	s32i	a8, a10, 0
400df244:	8ca482        	movi	a8, 0x48c
400df247:	881a      	add.n	a8, a8, a1
400df249:	0888      	l32i.n	a8, a8, 0
400df24b:	0218e6        	bgei	a8, 1, 400df251 <_ZN6tflite12_GLOBAL__N_1L4EvalEP13TfLiteContextP10TfLiteNode+0x1295>
400df24e:	009186        	j	400df498 <_ZN6tflite12_GLOBAL__N_1L4EvalEP13TfLiteContextP10TfLiteNode+0x14dc>
400df251:	c8a4a2        	movi	a10, 0x4c8
400df254:	aa1a      	add.n	a10, a10, a1
400df256:	0aa8      	l32i.n	a10, a10, 0
400df258:	318f70        	srai	a8, a7, 31
400df25b:	881b      	addi.n	a8, a8, 1
400df25d:	190c      	movi.n	a9, 1
400df25f:	0227a7        	blt	a7, a10, 400df265 <_ZN6tflite12_GLOBAL__N_1L4EvalEP13TfLiteContextP10TfLiteNode+0x12a9>
400df262:	00a092        	movi	a9, 0
400df265:	5ca4e2        	movi	a14, 0x45c
400df268:	ee1a      	add.n	a14, a14, a1
400df26a:	0ee8      	l32i.n	a14, a14, 0
400df26c:	10c890        	and	a12, a8, a9
400df26f:	20f7e0        	or	a15, a7, a14
400df272:	e4a4e2        	movi	a14, 0x4e4
400df275:	ee1a      	add.n	a14, a14, a1
400df277:	0ef9      	s32i.n	a15, a14, 0
400df279:	54a4f2        	movi	a15, 0x454
400df27c:	ff1a      	add.n	a15, a15, a1
400df27e:	d4a4b2        	movi	a11, 0x4d4
400df281:	68a4a2        	movi	a10, 0x468
400df284:	0ff8      	l32i.n	a15, a15, 0
400df286:	bb1a      	add.n	a11, a11, a1
400df288:	208df0        	or	a8, a13, a15
400df28b:	f0a4f2        	movi	a15, 0x4f0
400df28e:	ff1a      	add.n	a15, a15, a1
400df290:	0f89      	s32i.n	a8, a15, 0
400df292:	44a482        	movi	a8, 0x444
400df295:	881a      	add.n	a8, a8, a1
400df297:	aa1a      	add.n	a10, a10, a1
400df299:	24a4e2        	movi	a14, 0x424
400df29c:	0898      	l32i.n	a9, a8, 0
400df29e:	6ca482        	movi	a8, 0x46c
400df2a1:	881a      	add.n	a8, a8, a1
400df2a3:	ee1a      	add.n	a14, a14, a1
400df2a5:	0bc9      	s32i.n	a12, a11, 0
400df2a7:	38a4c2        	movi	a12, 0x438
400df2aa:	cc1a      	add.n	a12, a12, a1
400df2ac:	0ab8      	l32i.n	a11, a10, 0
400df2ae:	70a4a2        	movi	a10, 0x470
400df2b1:	aa1a      	add.n	a10, a10, a1
400df2b3:	0899      	s32i.n	a9, a8, 0
400df2b5:	0ab9      	s32i.n	a11, a10, 0
400df2b7:	002c92        	l32i	a9, a12, 0
400df2ba:	002eb2        	l32i	a11, a14, 0
400df2bd:	190996        	bltz	a9, 400df451 <_ZN6tflite12_GLOBAL__N_1L4EvalEP13TfLiteContextP10TfLiteNode+0x1495>
400df2c0:	cca4f2        	movi	a15, 0x4cc
400df2c3:	ff1a      	add.n	a15, a15, a1
400df2c5:	0ff8      	l32i.n	a15, a15, 0
400df2c7:	0229f7        	blt	a9, a15, 400df2cd <_ZN6tflite12_GLOBAL__N_1L4EvalEP13TfLiteContextP10TfLiteNode+0x1311>
400df2ca:	0060c6        	j	400df451 <_ZN6tflite12_GLOBAL__N_1L4EvalEP13TfLiteContextP10TfLiteNode+0x1495>
400df2cd:	d4a482        	movi	a8, 0x4d4
400df2d0:	881a      	add.n	a8, a8, a1
400df2d2:	0888      	l32i.n	a8, a8, 0
400df2d4:	179816        	beqz	a8, 400df451 <_ZN6tflite12_GLOBAL__N_1L4EvalEP13TfLiteContextP10TfLiteNode+0x1495>
400df2d7:	28a4a2        	movi	a10, 0x428
400df2da:	aa1a      	add.n	a10, a10, a1
400df2dc:	0aa8      	l32i.n	a10, a10, 0
400df2de:	021ae6        	bgei	a10, 1, 400df2e4 <_ZN6tflite12_GLOBAL__N_1L4EvalEP13TfLiteContextP10TfLiteNode+0x1328>
400df2e1:	005b06        	j	400df451 <_ZN6tflite12_GLOBAL__N_1L4EvalEP13TfLiteContextP10TfLiteNode+0x1495>
400df2e4:	d8a4c2        	movi	a12, 0x4d8
400df2e7:	cc1a      	add.n	a12, a12, a1
400df2e9:	0cc8      	l32i.n	a12, a12, 0
400df2eb:	024c26        	beqi	a12, 4, 400df2f1 <_ZN6tflite12_GLOBAL__N_1L4EvalEP13TfLiteContextP10TfLiteNode+0x1335>
400df2ee:	fb4b86        	j	400de020 <_ZN6tflite12_GLOBAL__N_1L4EvalEP13TfLiteContextP10TfLiteNode+0x64>
400df2f1:	dca4e2        	movi	a14, 0x4dc
400df2f4:	ee1a      	add.n	a14, a14, a1
400df2f6:	0ee8      	l32i.n	a14, a14, 0
400df2f8:	024e26        	beqi	a14, 4, 400df2fe <_ZN6tflite12_GLOBAL__N_1L4EvalEP13TfLiteContextP10TfLiteNode+0x1342>
400df2fb:	fb4846        	j	400de020 <_ZN6tflite12_GLOBAL__N_1L4EvalEP13TfLiteContextP10TfLiteNode+0x64>
400df2fe:	34a4f2        	movi	a15, 0x434
400df301:	ff1a      	add.n	a15, a15, a1
400df303:	0ff8      	l32i.n	a15, a15, 0
400df305:	2089f0        	or	a8, a9, a15
400df308:	b8a4f2        	movi	a15, 0x4b8
400df30b:	ff1a      	add.n	a15, a15, a1
400df30d:	0f89      	s32i.n	a8, a15, 0
400df30f:	58a482        	movi	a8, 0x458
400df312:	881a      	add.n	a8, a8, a1
400df314:	48a4f2        	movi	a15, 0x448
400df317:	ff1a      	add.n	a15, a15, a1
400df319:	0888      	l32i.n	a8, a8, 0
400df31b:	20ab80        	or	a10, a11, a8
400df31e:	f8a482        	movi	a8, 0x4f8
400df321:	881a      	add.n	a8, a8, a1
400df323:	08a9      	s32i.n	a10, a8, 0
400df325:	6ca4a2        	movi	a10, 0x46c
400df328:	aa1a      	add.n	a10, a10, a1
400df32a:	0ae8      	l32i.n	a14, a10, 0
400df32c:	eca4a2        	movi	a10, 0x4ec
400df32f:	aa1a      	add.n	a10, a10, a1
400df331:	0aa8      	l32i.n	a10, a10, 0
400df333:	90cea0        	addx2	a12, a14, a10
400df336:	50a4e2        	movi	a14, 0x450
400df339:	ee1a      	add.n	a14, a14, a1
400df33b:	0e88      	l32i.n	a8, a14, 0
400df33d:	b0a4e2        	movi	a14, 0x4b0
400df340:	ee1a      	add.n	a14, a14, a1
400df342:	0a0c      	movi.n	a10, 0
400df344:	0f89      	s32i.n	a8, a15, 0
400df346:	0ef8      	l32i.n	a15, a14, 0
400df348:	70a4e2        	movi	a14, 0x470
400df34b:	ee1a      	add.n	a14, a14, a1
400df34d:	0ee8      	l32i.n	a14, a14, 0
400df34f:	ffea      	add.n	a15, a15, a14
400df351:	05d1e2        	addmi	a14, a1, 0x500
400df354:	0ef9      	s32i.n	a15, a14, 0
400df356:	e8a4f2        	movi	a15, 0x4e8
400df359:	ff1a      	add.n	a15, a15, a1
400df35b:	0ff8      	l32i.n	a15, a15, 0
400df35d:	bf8c      	beqz.n	a15, 400df36c <_ZN6tflite12_GLOBAL__N_1L4EvalEP13TfLiteContextP10TfLiteNode+0x13b0>
400df35f:	98a4e2        	movi	a14, 0x498
400df362:	ee1a      	add.n	a14, a14, a1
400df364:	0ee8      	l32i.n	a14, a14, 0
400df366:	0223e7        	blt	a3, a14, 400df36c <_ZN6tflite12_GLOBAL__N_1L4EvalEP13TfLiteContextP10TfLiteNode+0x13b0>
400df369:	fb2cc6        	j	400de020 <_ZN6tflite12_GLOBAL__N_1L4EvalEP13TfLiteContextP10TfLiteNode+0x64>
400df36c:	e4a4f2        	movi	a15, 0x4e4
400df36f:	ff1a      	add.n	a15, a15, a1
400df371:	0ff8      	l32i.n	a15, a15, 0
400df373:	00df16        	beqz	a15, 400df384 <_ZN6tflite12_GLOBAL__N_1L4EvalEP13TfLiteContextP10TfLiteNode+0x13c8>
400df376:	5ca4e2        	movi	a14, 0x45c
400df379:	80ee10        	add	a14, a14, a1
400df37c:	0ee8      	l32i.n	a14, a14, 0
400df37e:	0227e7        	blt	a7, a14, 400df384 <_ZN6tflite12_GLOBAL__N_1L4EvalEP13TfLiteContextP10TfLiteNode+0x13c8>
400df381:	fb26c6        	j	400de020 <_ZN6tflite12_GLOBAL__N_1L4EvalEP13TfLiteContextP10TfLiteNode+0x64>
400df384:	b8a4f2        	movi	a15, 0x4b8
400df387:	ff1a      	add.n	a15, a15, a1
400df389:	0ff8      	l32i.n	a15, a15, 0
400df38b:	00df16        	beqz	a15, 400df39c <_ZN6tflite12_GLOBAL__N_1L4EvalEP13TfLiteContextP10TfLiteNode+0x13e0>
400df38e:	34a4e2        	movi	a14, 0x434
400df391:	80ee10        	add	a14, a14, a1
400df394:	0ee8      	l32i.n	a14, a14, 0
400df396:	0229e7        	blt	a9, a14, 400df39c <_ZN6tflite12_GLOBAL__N_1L4EvalEP13TfLiteContextP10TfLiteNode+0x13e0>
400df399:	fb20c6        	j	400de020 <_ZN6tflite12_GLOBAL__N_1L4EvalEP13TfLiteContextP10TfLiteNode+0x64>
400df39c:	20e480        	or	a14, a4, a8
400df39f:	ae8c      	beqz.n	a14, 400df3ad <_ZN6tflite12_GLOBAL__N_1L4EvalEP13TfLiteContextP10TfLiteNode+0x13f1>
400df3a1:	022847        	blt	a8, a4, 400df3a7 <_ZN6tflite12_GLOBAL__N_1L4EvalEP13TfLiteContextP10TfLiteNode+0x13eb>
400df3a4:	fb1e06        	j	400de020 <_ZN6tflite12_GLOBAL__N_1L4EvalEP13TfLiteContextP10TfLiteNode+0x64>
400df3a7:	0028d6        	bgez	a8, 400df3ad <_ZN6tflite12_GLOBAL__N_1L4EvalEP13TfLiteContextP10TfLiteNode+0x13f1>
400df3aa:	fb1c86        	j	400de020 <_ZN6tflite12_GLOBAL__N_1L4EvalEP13TfLiteContextP10TfLiteNode+0x64>
400df3ad:	e0a482        	movi	a8, 0x4e0
400df3b0:	881a      	add.n	a8, a8, a1
400df3b2:	0888      	l32i.n	a8, a8, 0
400df3b4:	001cf2        	l16ui	a15, a12, 0
400df3b7:	d88c      	beqz.n	a8, 400df3c8 <_ZN6tflite12_GLOBAL__N_1L4EvalEP13TfLiteContextP10TfLiteNode+0x140c>
400df3b9:	94a4e2        	movi	a14, 0x494
400df3bc:	80ee10        	add	a14, a14, a1
400df3bf:	002ee2        	l32i	a14, a14, 0
400df3c2:	0226e7        	blt	a6, a14, 400df3c8 <_ZN6tflite12_GLOBAL__N_1L4EvalEP13TfLiteContextP10TfLiteNode+0x140c>
400df3c5:	fb15c6        	j	400de020 <_ZN6tflite12_GLOBAL__N_1L4EvalEP13TfLiteContextP10TfLiteNode+0x64>
400df3c8:	f0a482        	movi	a8, 0x4f0
400df3cb:	881a      	add.n	a8, a8, a1
400df3cd:	0888      	l32i.n	a8, a8, 0
400df3cf:	d88c      	beqz.n	a8, 400df3e0 <_ZN6tflite12_GLOBAL__N_1L4EvalEP13TfLiteContextP10TfLiteNode+0x1424>
400df3d1:	54a4e2        	movi	a14, 0x454
400df3d4:	80ee10        	add	a14, a14, a1
400df3d7:	002ee2        	l32i	a14, a14, 0
400df3da:	022de7        	blt	a13, a14, 400df3e0 <_ZN6tflite12_GLOBAL__N_1L4EvalEP13TfLiteContextP10TfLiteNode+0x1424>
400df3dd:	fb0fc6        	j	400de020 <_ZN6tflite12_GLOBAL__N_1L4EvalEP13TfLiteContextP10TfLiteNode+0x64>
400df3e0:	f8a482        	movi	a8, 0x4f8
400df3e3:	881a      	add.n	a8, a8, a1
400df3e5:	0888      	l32i.n	a8, a8, 0
400df3e7:	d88c      	beqz.n	a8, 400df3f8 <_ZN6tflite12_GLOBAL__N_1L4EvalEP13TfLiteContextP10TfLiteNode+0x143c>
400df3e9:	58a4e2        	movi	a14, 0x458
400df3ec:	80ee10        	add	a14, a14, a1
400df3ef:	002ee2        	l32i	a14, a14, 0
400df3f2:	022be7        	blt	a11, a14, 400df3f8 <_ZN6tflite12_GLOBAL__N_1L4EvalEP13TfLiteContextP10TfLiteNode+0x143c>
400df3f5:	fb09c6        	j	400de020 <_ZN6tflite12_GLOBAL__N_1L4EvalEP13TfLiteContextP10TfLiteNode+0x64>
400df3f8:	30a4e2        	movi	a14, 0x430
400df3fb:	ee1a      	add.n	a14, a14, a1
400df3fd:	002ee2        	l32i	a14, a14, 0
400df400:	208ea0        	or	a8, a14, a10
400df403:	005816        	beqz	a8, 400df40c <_ZN6tflite12_GLOBAL__N_1L4EvalEP13TfLiteContextP10TfLiteNode+0x1450>
400df406:	022ae7        	blt	a10, a14, 400df40c <_ZN6tflite12_GLOBAL__N_1L4EvalEP13TfLiteContextP10TfLiteNode+0x1450>
400df409:	fb04c6        	j	400de020 <_ZN6tflite12_GLOBAL__N_1L4EvalEP13TfLiteContextP10TfLiteNode+0x64>
400df40c:	05d1e2        	addmi	a14, a1, 0x500
400df40f:	0ee8      	l32i.n	a14, a14, 0
400df411:	8eaa      	add.n	a8, a14, a10
400df413:	1e0c      	movi.n	a14, 1
400df415:	000882        	l8ui	a8, a8, 0
400df418:	238800        	sext	a8, a8, 7
400df41b:	d188f0        	mul16s	a8, a8, a15
400df41e:	f58a      	add.n	a15, a5, a8
400df420:	318f80        	srai	a8, a8, 31
400df423:	013f57        	bltu	a15, a5, 400df428 <_ZN6tflite12_GLOBAL__N_1L4EvalEP13TfLiteContextP10TfLiteNode+0x146c>
400df426:	0e0c      	movi.n	a14, 0
400df428:	0f5d      	mov.n	a5, a15
400df42a:	48a4f2        	movi	a15, 0x448
400df42d:	ff1a      	add.n	a15, a15, a1
400df42f:	0ff8      	l32i.n	a15, a15, 0
400df431:	828a      	add.n	a8, a2, a8
400df433:	2e8a      	add.n	a2, a14, a8
400df435:	8f1b      	addi.n	a8, a15, 1
400df437:	48a4f2        	movi	a15, 0x448
400df43a:	ff1a      	add.n	a15, a15, a1
400df43c:	0f89      	s32i.n	a8, a15, 0
400df43e:	28a482        	movi	a8, 0x428
400df441:	881a      	add.n	a8, a8, a1
400df443:	aa1b      	addi.n	a10, a10, 1
400df445:	cc2b      	addi.n	a12, a12, 2
400df447:	0888      	l32i.n	a8, a8, 0
400df449:	0418a7        	beq	a8, a10, 400df451 <_ZN6tflite12_GLOBAL__N_1L4EvalEP13TfLiteContextP10TfLiteNode+0x1495>
400df44c:	0f88      	l32i.n	a8, a15, 0
400df44e:	ffc106        	j	400df356 <_ZN6tflite12_GLOBAL__N_1L4EvalEP13TfLiteContextP10TfLiteNode+0x139a>
400df451:	70a4c2        	movi	a12, 0x470
400df454:	cc1a      	add.n	a12, a12, a1
400df456:	0ce8      	l32i.n	a14, a12, 0
400df458:	30a4c2        	movi	a12, 0x430
400df45b:	cc1a      	add.n	a12, a12, a1
400df45d:	78a4a2        	movi	a10, 0x478
400df460:	aa1a      	add.n	a10, a10, a1
400df462:	0cc8      	l32i.n	a12, a12, 0
400df464:	bb1b      	addi.n	a11, a11, 1
400df466:	eeca      	add.n	a14, a14, a12
400df468:	70a4c2        	movi	a12, 0x470
400df46b:	cc1a      	add.n	a12, a12, a1
400df46d:	0ce9      	s32i.n	a14, a12, 0
400df46f:	6ca4e2        	movi	a14, 0x46c
400df472:	ee1a      	add.n	a14, a14, a1
400df474:	0ef8      	l32i.n	a15, a14, 0
400df476:	bca4e2        	movi	a14, 0x4bc
400df479:	ee1a      	add.n	a14, a14, a1
400df47b:	0ee8      	l32i.n	a14, a14, 0
400df47d:	ffea      	add.n	a15, a15, a14
400df47f:	6ca4e2        	movi	a14, 0x46c
400df482:	ee1a      	add.n	a14, a14, a1
400df484:	0ef9      	s32i.n	a15, a14, 0
400df486:	8ca4f2        	movi	a15, 0x48c
400df489:	ff1a      	add.n	a15, a15, a1
400df48b:	0aa8      	l32i.n	a10, a10, 0
400df48d:	99aa      	add.n	a9, a9, a10
400df48f:	002ff2        	l32i	a15, a15, 0
400df492:	021fb7        	beq	a15, a11, 400df498 <_ZN6tflite12_GLOBAL__N_1L4EvalEP13TfLiteContextP10TfLiteNode+0x14dc>
400df495:	ff8906        	j	400df2bd <_ZN6tflite12_GLOBAL__N_1L4EvalEP13TfLiteContextP10TfLiteNode+0x1301>
400df498:	68a482        	movi	a8, 0x468
400df49b:	881a      	add.n	a8, a8, a1
400df49d:	0898      	l32i.n	a9, a8, 0
400df49f:	9ca482        	movi	a8, 0x49c
400df4a2:	881a      	add.n	a8, a8, a1
400df4a4:	88a4b2        	movi	a11, 0x488
400df4a7:	bb1a      	add.n	a11, a11, a1
400df4a9:	0888      	l32i.n	a8, a8, 0
400df4ab:	dd1b      	addi.n	a13, a13, 1
400df4ad:	998a      	add.n	a9, a9, a8
400df4af:	68a482        	movi	a8, 0x468
400df4b2:	881a      	add.n	a8, a8, a1
400df4b4:	0899      	s32i.n	a9, a8, 0
400df4b6:	44a492        	movi	a9, 0x444
400df4b9:	991a      	add.n	a9, a9, a1
400df4bb:	09a8      	l32i.n	a10, a9, 0
400df4bd:	f4a492        	movi	a9, 0x4f4
400df4c0:	991a      	add.n	a9, a9, a1
400df4c2:	0998      	l32i.n	a9, a9, 0
400df4c4:	aa9a      	add.n	a10, a10, a9
400df4c6:	44a492        	movi	a9, 0x444
400df4c9:	991a      	add.n	a9, a9, a1
400df4cb:	09a9      	s32i.n	a10, a9, 0
400df4cd:	7ca4a2        	movi	a10, 0x47c
400df4d0:	aa1a      	add.n	a10, a10, a1
400df4d2:	0aa8      	l32i.n	a10, a10, 0
400df4d4:	77aa      	add.n	a7, a7, a10
400df4d6:	0bb8      	l32i.n	a11, a11, 0
400df4d8:	021bd7        	beq	a11, a13, 400df4de <_ZN6tflite12_GLOBAL__N_1L4EvalEP13TfLiteContextP10TfLiteNode+0x1522>
400df4db:	ff5946        	j	400df244 <_ZN6tflite12_GLOBAL__N_1L4EvalEP13TfLiteContextP10TfLiteNode+0x1288>
400df4de:	04a5c2        	movi	a12, 0x504
400df4e1:	08a5d2        	movi	a13, 0x508
400df4e4:	cc1a      	add.n	a12, a12, a1
400df4e6:	dd1a      	add.n	a13, a13, a1
400df4e8:	0c48      	l32i.n	a4, a12, 0
400df4ea:	05ed      	mov.n	a14, a5
400df4ec:	02cd      	mov.n	a12, a2
400df4ee:	065d      	mov.n	a5, a6
400df4f0:	0d28      	l32i.n	a2, a13, 0
400df4f2:	0000c6        	j	400df4f9 <_ZN6tflite12_GLOBAL__N_1L4EvalEP13TfLiteContextP10TfLiteNode+0x153d>
400df4f5:	0e0c      	movi.n	a14, 0
400df4f7:	0ecd      	mov.n	a12, a14
400df4f9:	40a4f2        	movi	a15, 0x440
400df4fc:	ff1a      	add.n	a15, a15, a1
400df4fe:	0ff8      	l32i.n	a15, a15, 0
400df500:	4f9c      	beqz.n	a15, 400df518 <_ZN6tflite12_GLOBAL__N_1L4EvalEP13TfLiteContextP10TfLiteNode+0x155c>
400df502:	b095f0        	addx8	a9, a5, a15
400df505:	1a0c      	movi.n	a10, 1
400df507:	0988      	l32i.n	a8, a9, 0
400df509:	8e8a      	add.n	a8, a14, a8
400df50b:	1998      	l32i.n	a9, a9, 4
400df50d:	0138e7        	bltu	a8, a14, 400df512 <_ZN6tflite12_GLOBAL__N_1L4EvalEP13TfLiteContextP10TfLiteNode+0x1556>
400df510:	0a0c      	movi.n	a10, 0
400df512:	9c9a      	add.n	a9, a12, a9
400df514:	08ed      	mov.n	a14, a8
400df516:	ca9a      	add.n	a12, a10, a9
400df518:	3ca482        	movi	a8, 0x43c
400df51b:	60a492        	movi	a9, 0x460
400df51e:	881a      	add.n	a8, a8, a1
400df520:	991a      	add.n	a9, a9, a1
400df522:	0888      	l32i.n	a8, a8, 0
400df524:	0cbd      	mov.n	a11, a12
400df526:	0ead      	mov.n	a10, a14
400df528:	0998      	l32i.n	a9, a9, 0
400df52a:	08d8      	l32i.n	a13, a8, 0
400df52c:	09c8      	l32i.n	a12, a9, 0
400df52e:	04f8e5        	call8	400e44bc <_ZN6tflite29MultiplyByQuantizedMultiplierExli>
400df531:	a0a4c2        	movi	a12, 0x4a0
400df534:	80a4b2        	movi	a11, 0x480
400df537:	cc1a      	add.n	a12, a12, a1
400df539:	0cc8      	l32i.n	a12, a12, 0
400df53b:	bb1a      	add.n	a11, a11, a1
400df53d:	84a4d2        	movi	a13, 0x484
400df540:	dd1a      	add.n	a13, a13, a1
400df542:	0bb8      	l32i.n	a11, a11, 0
400df544:	539ba0        	max	a9, a11, a10
400df547:	0dd8      	l32i.n	a13, a13, 0
400df549:	4399d0        	min	a9, a9, a13
400df54c:	9a2c82        	l32i	a8, a12, 0x268
400df54f:	024826        	beqi	a8, 4, 400df555 <_ZN6tflite12_GLOBAL__N_1L4EvalEP13TfLiteContextP10TfLiteNode+0x1599>
400df552:	fab286        	j	400de020 <_ZN6tflite12_GLOBAL__N_1L4EvalEP13TfLiteContextP10TfLiteNode+0x64>
400df555:	ab2182        	l32i	a8, a1, 0x2ac
400df558:	20a830        	or	a10, a8, a3
400df55b:	005a16        	beqz	a10, 400df564 <_ZN6tflite12_GLOBAL__N_1L4EvalEP13TfLiteContextP10TfLiteNode+0x15a8>
400df55e:	022387        	blt	a3, a8, 400df564 <_ZN6tflite12_GLOBAL__N_1L4EvalEP13TfLiteContextP10TfLiteNode+0x15a8>
400df561:	faaec6        	j	400de020 <_ZN6tflite12_GLOBAL__N_1L4EvalEP13TfLiteContextP10TfLiteNode+0x64>
400df564:	ac2182        	l32i	a8, a1, 0x2b0
400df567:	20a840        	or	a10, a8, a4
400df56a:	4a8c      	beqz.n	a10, 400df572 <_ZN6tflite12_GLOBAL__N_1L4EvalEP13TfLiteContextP10TfLiteNode+0x15b6>
400df56c:	022487        	blt	a4, a8, 400df572 <_ZN6tflite12_GLOBAL__N_1L4EvalEP13TfLiteContextP10TfLiteNode+0x15b6>
400df56f:	faab46        	j	400de020 <_ZN6tflite12_GLOBAL__N_1L4EvalEP13TfLiteContextP10TfLiteNode+0x64>
400df572:	ad21b2        	l32i	a11, a1, 0x2b4
400df575:	20ab20        	or	a10, a11, a2
400df578:	4a8c      	beqz.n	a10, 400df580 <_ZN6tflite12_GLOBAL__N_1L4EvalEP13TfLiteContextP10TfLiteNode+0x15c4>
400df57a:	0222b7        	blt	a2, a11, 400df580 <_ZN6tflite12_GLOBAL__N_1L4EvalEP13TfLiteContextP10TfLiteNode+0x15c4>
400df57d:	faa7c6        	j	400de020 <_ZN6tflite12_GLOBAL__N_1L4EvalEP13TfLiteContextP10TfLiteNode+0x64>
400df580:	ae21a2        	l32i	a10, a1, 0x2b8
400df583:	20ca50        	or	a12, a10, a5
400df586:	4c8c      	beqz.n	a12, 400df58e <_ZN6tflite12_GLOBAL__N_1L4EvalEP13TfLiteContextP10TfLiteNode+0x15d2>
400df588:	0225a7        	blt	a5, a10, 400df58e <_ZN6tflite12_GLOBAL__N_1L4EvalEP13TfLiteContextP10TfLiteNode+0x15d2>
400df58b:	faa446        	j	400de020 <_ZN6tflite12_GLOBAL__N_1L4EvalEP13TfLiteContextP10TfLiteNode+0x64>
400df58e:	60a4e2        	movi	a14, 0x460
400df591:	ee1a      	add.n	a14, a14, a1
400df593:	0ee8      	l32i.n	a14, a14, 0
400df595:	828830        	mull	a8, a8, a3
400df598:	fe4b      	addi.n	a15, a14, 4
400df59a:	60a4e2        	movi	a14, 0x460
400df59d:	ee1a      	add.n	a14, a14, a1
400df59f:	0ef9      	s32i.n	a15, a14, 0
400df5a1:	3ca4f2        	movi	a15, 0x43c
400df5a4:	ff1a      	add.n	a15, a15, a1
400df5a6:	884a      	add.n	a8, a8, a4
400df5a8:	8288b0        	mull	a8, a8, a11
400df5ab:	0ff8      	l32i.n	a15, a15, 0
400df5ad:	882a      	add.n	a8, a8, a2
400df5af:	6f4b      	addi.n	a6, a15, 4
400df5b1:	3ca4f2        	movi	a15, 0x43c
400df5b4:	ff1a      	add.n	a15, a15, a1
400df5b6:	0f69      	s32i.n	a6, a15, 0
400df5b8:	b4a462        	movi	a6, 0x4b4
400df5bb:	8288a0        	mull	a8, a8, a10
400df5be:	661a      	add.n	a6, a6, a1
400df5c0:	885a      	add.n	a8, a8, a5
400df5c2:	0668      	l32i.n	a6, a6, 0
400df5c4:	551b      	addi.n	a5, a5, 1
400df5c6:	908860        	addx2	a8, a8, a6
400df5c9:	005892        	s16i	a9, a8, 0
400df5cc:	0020c0        	memw
400df5cf:	2ca482        	movi	a8, 0x42c
400df5d2:	881a      	add.n	a8, a8, a1
400df5d4:	0888      	l32i.n	a8, a8, 0
400df5d6:	021587        	beq	a5, a8, 400df5dc <_ZN6tflite12_GLOBAL__N_1L4EvalEP13TfLiteContextP10TfLiteNode+0x1620>
400df5d9:	fecbc6        	j	400df10c <_ZN6tflite12_GLOBAL__N_1L4EvalEP13TfLiteContextP10TfLiteNode+0x1150>
400df5dc:	38a492        	movi	a9, 0x438
400df5df:	991a      	add.n	a9, a9, a1
400df5e1:	09a8      	l32i.n	a10, a9, 0
400df5e3:	c0a492        	movi	a9, 0x4c0
400df5e6:	991a      	add.n	a9, a9, a1
400df5e8:	721b      	addi.n	a7, a2, 1
400df5ea:	0998      	l32i.n	a9, a9, 0
400df5ec:	aa9a      	add.n	a10, a10, a9
400df5ee:	38a492        	movi	a9, 0x438
400df5f1:	991a      	add.n	a9, a9, a1
400df5f3:	09a9      	s32i.n	a10, a9, 0
400df5f5:	90a4a2        	movi	a10, 0x490
400df5f8:	aa1a      	add.n	a10, a10, a1
400df5fa:	0aa8      	l32i.n	a10, a10, 0
400df5fc:	021a77        	beq	a10, a7, 400df602 <_ZN6tflite12_GLOBAL__N_1L4EvalEP13TfLiteContextP10TfLiteNode+0x1646>
400df5ff:	feb886        	j	400df0e5 <_ZN6tflite12_GLOBAL__N_1L4EvalEP13TfLiteContextP10TfLiteNode+0x1129>
400df602:	046d      	mov.n	a6, a4
400df604:	035d      	mov.n	a5, a3
400df606:	fe9786        	j	400df068 <_ZN6tflite12_GLOBAL__N_1L4EvalEP13TfLiteContextP10TfLiteNode+0x10ac>
400df609:	00          	.byte	00
400df60a:	64a4b2        	movi	a11, 0x464
400df60d:	bb1a      	add.n	a11, a11, a1
400df60f:	0bb8      	l32i.n	a11, a11, 0
400df611:	551b      	addi.n	a5, a5, 1
400df613:	021b57        	beq	a11, a5, 400df619 <_ZN6tflite12_GLOBAL__N_1L4EvalEP13TfLiteContextP10TfLiteNode+0x165d>
400df616:	fe88c6        	j	400df03d <_ZN6tflite12_GLOBAL__N_1L4EvalEP13TfLiteContextP10TfLiteNode+0x1081>
400df619:	016d06        	j	400dfbd1 <_ZN6tflite12_GLOBAL__N_1L4EvalEP13TfLiteContextP10TfLiteNode+0x1c15>
400df61c:	4ca4f2        	movi	a15, 0x44c
400df61f:	fca4c2        	movi	a12, 0x4fc
400df622:	ff1a      	add.n	a15, a15, a1
400df624:	60e0d0        	neg	a14, a13
400df627:	cc1a      	add.n	a12, a12, a1
400df629:	0ff8      	l32i.n	a15, a15, 0
400df62b:	045d      	mov.n	a5, a4
400df62d:	0ce9      	s32i.n	a14, a12, 0
400df62f:	021fa6        	blti	a15, 1, 400df635 <_ZN6tflite12_GLOBAL__N_1L4EvalEP13TfLiteContextP10TfLiteNode+0x1679>
400df632:	fe7fc6        	j	400df035 <_ZN6tflite12_GLOBAL__N_1L4EvalEP13TfLiteContextP10TfLiteNode+0x1079>
400df635:	016606        	j	400dfbd1 <_ZN6tflite12_GLOBAL__N_1L4EvalEP13TfLiteContextP10TfLiteNode+0x1c15>
400df638:	045365        	call8	400e3b70 <TfLiteTypeGetName>
400df63b:	0abd      	mov.n	a11, a10
400df63d:	23c8      	l32i.n	a12, a3, 8
400df63f:	c5b1a1        	l32r	a10, 400d0d04 <_stext+0xce4> (3f406568 <_flash_rodata_start+0x6448>)
400df642:	fde025        	call8	400dd444 <_Z11MicroPrintfPKcz>
400df645:	015986        	j	400dfbaf <_ZN6tflite12_GLOBAL__N_1L4EvalEP13TfLiteContextP10TfLiteNode+0x1bf3>
400df648:	00          	.byte	00
400df649:	00          	.byte	00
400df64a:	00          	.byte	00
400df64b:	27a8      	l32i.n	a10, a7, 8
400df64d:	029a97        	bne	a10, a9, 400df653 <_ZN6tflite12_GLOBAL__N_1L4EvalEP13TfLiteContextP10TfLiteNode+0x1697>
400df650:	004f46        	j	400df791 <_ZN6tflite12_GLOBAL__N_1L4EvalEP13TfLiteContextP10TfLiteNode+0x17d5>
400df653:	291c      	movi.n	a9, 18
400df655:	021a97        	beq	a10, a9, 400df65b <_ZN6tflite12_GLOBAL__N_1L4EvalEP13TfLiteContextP10TfLiteNode+0x169f>
400df658:	015106        	j	400dfba0 <_ZN6tflite12_GLOBAL__N_1L4EvalEP13TfLiteContextP10TfLiteNode+0x1be4>
400df65b:	24a442        	movi	a4, 0x424
400df65e:	441a      	add.n	a4, a4, a1
400df660:	0448      	l32i.n	a4, a4, 0
400df662:	18a5c2        	movi	a12, 0x518
400df665:	cc1a      	add.n	a12, a12, a1
400df667:	04ad      	mov.n	a10, a4
400df669:	40c122        	addi	a2, a1, 64
400df66c:	112492        	l32i	a9, a4, 68
400df66f:	d5b8      	l32i.n	a11, a5, 52
400df671:	006cd2        	s32i	a13, a12, 0
400df674:	0009e0        	callx8	a9
400df677:	24a4e2        	movi	a14, 0x424
400df67a:	0a9d      	mov.n	a9, a10
400df67c:	ee1a      	add.n	a14, a14, a1
400df67e:	0e99      	s32i.n	a9, a14, 0
400df680:	07bd      	mov.n	a11, a7
400df682:	02ad      	mov.n	a10, a2
400df684:	0748      	l32i.n	a4, a7, 0
400df686:	065025        	call8	400e5b88 <_ZN6tflite5micro14GetTensorShapeEPK16TfLiteEvalTensor>
400df689:	18a5f2        	movi	a15, 0x518
400df68c:	ff1a      	add.n	a15, a15, a1
400df68e:	102192        	l32i	a9, a1, 64
400df691:	0fd8      	l32i.n	a13, a15, 0
400df693:	1b19a6        	blti	a9, 1, 400df6b2 <_ZN6tflite12_GLOBAL__N_1L4EvalEP13TfLiteContextP10TfLiteNode+0x16f6>
400df696:	1199e0        	slli	a9, a9, 2
400df699:	fcc992        	addi	a9, a9, -4
400df69c:	419290        	srli	a9, a9, 2
400df69f:	1b0c      	movi.n	a11, 1
400df6a1:	02ad      	mov.n	a10, a2
400df6a3:	99ba      	add.n	a9, a9, a11
400df6a5:	068976        	loop	a9, 400df6af <_ZN6tflite12_GLOBAL__N_1L4EvalEP13TfLiteContextP10TfLiteNode+0x16f3>
400df6a8:	1a88      	l32i.n	a8, a10, 4
400df6aa:	aa4b      	addi.n	a10, a10, 4
400df6ac:	82bb80        	mull	a11, a11, a8
400df6af:	000046        	j	400df6b4 <_ZN6tflite12_GLOBAL__N_1L4EvalEP13TfLiteContextP10TfLiteNode+0x16f8>
400df6b2:	1b0c      	movi.n	a11, 1
400df6b4:	24a482        	movi	a8, 0x424
400df6b7:	881a      	add.n	a8, a8, a1
400df6b9:	18a592        	movi	a9, 0x518
400df6bc:	08c8      	l32i.n	a12, a8, 0
400df6be:	991a      	add.n	a9, a9, a1
400df6c0:	04ad      	mov.n	a10, a4
400df6c2:	02d242        	addmi	a4, a2, 0x200
400df6c5:	09d9      	s32i.n	a13, a9, 0
400df6c7:	228425        	call8	40101f08 <_ZN6tflite12tensor_utils23UnpackDenseInt4IntoInt8EPKaiPa>
400df6ca:	18a5a2        	movi	a10, 0x518
400df6cd:	aa1a      	add.n	a10, a10, a1
400df6cf:	05cd      	mov.n	a12, a5
400df6d1:	0ab8      	l32i.n	a11, a10, 0
400df6d3:	78c1a2        	addi	a10, a1, 120
400df6d6:	05e465        	call8	400e551c <_ZN6tflite19ConvParamsQuantizedERK16TfLiteConvParamsRKNS_10OpDataConvE>
400df6d9:	20a4c2        	movi	a12, 0x420
400df6dc:	cc1a      	add.n	a12, a12, a1
400df6de:	95e8      	l32i.n	a14, a5, 36
400df6e0:	28a4d2        	movi	a13, 0x428
400df6e3:	2ca4f2        	movi	a15, 0x42c
400df6e6:	dd1a      	add.n	a13, a13, a1
400df6e8:	ff1a      	add.n	a15, a15, a1
400df6ea:	a558      	l32i.n	a5, a5, 40
400df6ec:	4cc4a2        	addi	a10, a4, 76
400df6ef:	0cb8      	l32i.n	a11, a12, 0
400df6f1:	0f59      	s32i.n	a5, a15, 0
400df6f3:	0de9      	s32i.n	a14, a13, 0
400df6f5:	064925        	call8	400e5b88 <_ZN6tflite5micro14GetTensorShapeEPK16TfLiteEvalTensor>
400df6f8:	20a482        	movi	a8, 0x420
400df6fb:	881a      	add.n	a8, a8, a1
400df6fd:	07bd      	mov.n	a11, a7
400df6ff:	002882        	l32i	a8, a8, 0
400df702:	30c4a2        	addi	a10, a4, 48
400df705:	002852        	l32i	a5, a8, 0
400df708:	0647e5        	call8	400e5b88 <_ZN6tflite5micro14GetTensorShapeEPK16TfLiteEvalTensor>
400df70b:	03bd      	mov.n	a11, a3
400df70d:	14c4a2        	addi	a10, a4, 20
400df710:	064765        	call8	400e5b88 <_ZN6tflite5micro14GetTensorShapeEPK16TfLiteEvalTensor>
400df713:	038c      	beqz.n	a3, 400df717 <_ZN6tflite12_GLOBAL__N_1L4EvalEP13TfLiteContextP10TfLiteNode+0x175b>
400df715:	0338      	l32i.n	a3, a3, 0
400df717:	f8a172        	movi	a7, 0x1f8
400df71a:	727a      	add.n	a7, a2, a7
400df71c:	06bd      	mov.n	a11, a6
400df71e:	20a770        	or	a10, a7, a7
400df721:	064665        	call8	400e5b88 <_ZN6tflite5micro14GetTensorShapeEPK16TfLiteEvalTensor>
400df724:	16cc      	bnez.n	a6, 400df729 <_ZN6tflite12_GLOBAL__N_1L4EvalEP13TfLiteContextP10TfLiteNode+0x176d>
400df726:	fa3d86        	j	400de020 <_ZN6tflite12_GLOBAL__N_1L4EvalEP13TfLiteContextP10TfLiteNode+0x64>
400df729:	2ca442        	movi	a4, 0x42c
400df72c:	441a      	add.n	a4, a4, a1
400df72e:	0448      	l32i.n	a4, a4, 0
400df730:	14a282        	movi	a8, 0x214
400df733:	828a      	add.n	a8, a2, a8
400df735:	4ca2a2        	movi	a10, 0x24c
400df738:	30a292        	movi	a9, 0x230
400df73b:	0668      	l32i.n	a6, a6, 0
400df73d:	929a      	add.n	a9, a2, a9
400df73f:	22aa      	add.n	a2, a2, a10
400df741:	5149      	s32i.n	a4, a1, 20
400df743:	28a442        	movi	a4, 0x428
400df746:	441a      	add.n	a4, a4, a1
400df748:	0448      	l32i.n	a4, a4, 0
400df74a:	4149      	s32i.n	a4, a1, 16
400df74c:	292142        	l32i	a4, a1, 164
400df74f:	3149      	s32i.n	a4, a1, 12
400df751:	282142        	l32i	a4, a1, 160
400df754:	2149      	s32i.n	a4, a1, 8
400df756:	252142        	l32i	a4, a1, 148
400df759:	1149      	s32i.n	a4, a1, 4
400df75b:	232142        	l32i	a4, a1, 140
400df75e:	d169      	s32i.n	a6, a1, 52
400df760:	24a462        	movi	a6, 0x424
400df763:	661a      	add.n	a6, a6, a1
400df765:	0149      	s32i.n	a4, a1, 0
400df767:	c179      	s32i.n	a7, a1, 48
400df769:	b139      	s32i.n	a3, a1, 44
400df76b:	a189      	s32i.n	a8, a1, 40
400df76d:	0668      	l32i.n	a6, a6, 0
400df76f:	4491f2        	l16si	a15, a1, 136
400df772:	4391e2        	l16si	a14, a1, 134
400df775:	4291d2        	l16si	a13, a1, 132
400df778:	4191c2        	l16si	a12, a1, 130
400df77b:	3e91b2        	l16si	a11, a1, 124
400df77e:	3d91a2        	l16si	a10, a1, 122
400df781:	9169      	s32i.n	a6, a1, 36
400df783:	8199      	s32i.n	a9, a1, 32
400df785:	7159      	s32i.n	a5, a1, 28
400df787:	6129      	s32i.n	a2, a1, 24
400df789:	fe47a5        	call8	400ddc04 <_ZN6tflite21reference_integer_ops14ConvPerChannelERKNS_10ConvParamsEPKlS5_RKNS_12RuntimeShapeEPKaS8_SA_S8_S5_S8_Pa$isra$0>
400df78c:	011046        	j	400dfbd1 <_ZN6tflite12_GLOBAL__N_1L4EvalEP13TfLiteContextP10TfLiteNode+0x1c15>
400df78f:	00          	.byte	00
400df790:	00          	.byte	00
400df791:	4d98      	l32i.n	a9, a13, 16
400df793:	021926        	beqi	a9, 1, 400df799 <_ZN6tflite12_GLOBAL__N_1L4EvalEP13TfLiteContextP10TfLiteNode+0x17dd>
400df796:	00d086        	j	400dfadc <_ZN6tflite12_GLOBAL__N_1L4EvalEP13TfLiteContextP10TfLiteNode+0x1b20>
400df799:	5d98      	l32i.n	a9, a13, 20
400df79b:	021926        	beqi	a9, 1, 400df7a1 <_ZN6tflite12_GLOBAL__N_1L4EvalEP13TfLiteContextP10TfLiteNode+0x17e5>
400df79e:	00ce86        	j	400dfadc <_ZN6tflite12_GLOBAL__N_1L4EvalEP13TfLiteContextP10TfLiteNode+0x1b20>
400df7a1:	18a582        	movi	a8, 0x518
400df7a4:	881a      	add.n	a8, a8, a1
400df7a6:	40c122        	addi	a2, a1, 64
400df7a9:	dca1a2        	movi	a10, 0x1dc
400df7ac:	08d9      	s32i.n	a13, a8, 0
400df7ae:	07bd      	mov.n	a11, a7
400df7b0:	a2aa      	add.n	a10, a2, a10
400df7b2:	063d65        	call8	400e5b88 <_ZN6tflite5micro14GetTensorShapeEPK16TfLiteEvalTensor>
400df7b5:	20a492        	movi	a9, 0x420
400df7b8:	991a      	add.n	a9, a9, a1
400df7ba:	09b8      	l32i.n	a11, a9, 0
400df7bc:	02d1a2        	addmi	a10, a1, 0x200
400df7bf:	063ca5        	call8	400e5b88 <_ZN6tflite5micro14GetTensorShapeEPK16TfLiteEvalTensor>
400df7c2:	01d242        	addmi	a4, a2, 0x100
400df7c5:	a4a0a2        	movi	a10, 164
400df7c8:	06bd      	mov.n	a11, a6
400df7ca:	a4aa      	add.n	a10, a4, a10
400df7cc:	063ba5        	call8	400e5b88 <_ZN6tflite5micro14GetTensorShapeEPK16TfLiteEvalTensor>
400df7cf:	88a0a2        	movi	a10, 136
400df7d2:	03bd      	mov.n	a11, a3
400df7d4:	a4aa      	add.n	a10, a4, a10
400df7d6:	063b25        	call8	400e5b88 <_ZN6tflite5micro14GetTensorShapeEPK16TfLiteEvalTensor>
400df7d9:	20a4a2        	movi	a10, 0x420
400df7dc:	aa1a      	add.n	a10, a10, a1
400df7de:	0aa8      	l32i.n	a10, a10, 0
400df7e0:	18a5c2        	movi	a12, 0x518
400df7e3:	cc1a      	add.n	a12, a12, a1
400df7e5:	0ab8      	l32i.n	a11, a10, 0
400df7e7:	20a4a2        	movi	a10, 0x420
400df7ea:	aa1a      	add.n	a10, a10, a1
400df7ec:	0ab9      	s32i.n	a11, a10, 0
400df7ee:	0cd8      	l32i.n	a13, a12, 0
400df7f0:	16cc      	bnez.n	a6, 400df7f5 <_ZN6tflite12_GLOBAL__N_1L4EvalEP13TfLiteContextP10TfLiteNode+0x1839>
400df7f2:	fa0a86        	j	400de020 <_ZN6tflite12_GLOBAL__N_1L4EvalEP13TfLiteContextP10TfLiteNode+0x64>
400df7f5:	44a4e2        	movi	a14, 0x444
400df7f8:	40a482        	movi	a8, 0x440
400df7fb:	ee1a      	add.n	a14, a14, a1
400df7fd:	4598      	l32i.n	a9, a5, 16
400df7ff:	881a      	add.n	a8, a8, a1
400df801:	60f090        	neg	a15, a9
400df804:	48a492        	movi	a9, 0x448
400df807:	991a      	add.n	a9, a9, a1
400df809:	0668      	l32i.n	a6, a6, 0
400df80b:	4ca4b2        	movi	a11, 0x44c
400df80e:	bb1a      	add.n	a11, a11, a1
400df810:	65a8      	l32i.n	a10, a5, 24
400df812:	1dc8      	l32i.n	a12, a13, 4
400df814:	09a9      	s32i.n	a10, a9, 0
400df816:	58a492        	movi	a9, 0x458
400df819:	991a      	add.n	a9, a9, a1
400df81b:	0ef9      	s32i.n	a15, a14, 0
400df81d:	50a4f2        	movi	a15, 0x450
400df820:	ff1a      	add.n	a15, a15, a1
400df822:	0869      	s32i.n	a6, a8, 0
400df824:	54a462        	movi	a6, 0x454
400df827:	661a      	add.n	a6, a6, a1
400df829:	2dd8      	l32i.n	a13, a13, 8
400df82b:	0588      	l32i.n	a8, a5, 0
400df82d:	15a8      	l32i.n	a10, a5, 4
400df82f:	7022e2        	l32i	a14, a2, 0x1c0
400df832:	0bc9      	s32i.n	a12, a11, 0
400df834:	0fd9      	s32i.n	a13, a15, 0
400df836:	0689      	s32i.n	a8, a6, 0
400df838:	09a9      	s32i.n	a10, a9, 0
400df83a:	022ee6        	bgei	a14, 2, 400df840 <_ZN6tflite12_GLOBAL__N_1L4EvalEP13TfLiteContextP10TfLiteNode+0x1884>
400df83d:	f9f7c6        	j	400de020 <_ZN6tflite12_GLOBAL__N_1L4EvalEP13TfLiteContextP10TfLiteNode+0x64>
400df840:	28a4b2        	movi	a11, 0x428
400df843:	bb1a      	add.n	a11, a11, a1
400df845:	722242        	l32i	a4, a2, 0x1c8
400df848:	0b49      	s32i.n	a4, a11, 0
400df84a:	022e66        	bnei	a14, 2, 400df850 <_ZN6tflite12_GLOBAL__N_1L4EvalEP13TfLiteContextP10TfLiteNode+0x1894>
400df84d:	f9f3c6        	j	400de020 <_ZN6tflite12_GLOBAL__N_1L4EvalEP13TfLiteContextP10TfLiteNode+0x64>
400df850:	dca1a2        	movi	a10, 0x1dc
400df853:	a2aa      	add.n	a10, a2, a10
400df855:	2ca4d2        	movi	a13, 0x42c
400df858:	7322f2        	l32i	a15, a2, 0x1cc
400df85b:	dd1a      	add.n	a13, a13, a1
400df85d:	0ac8      	l32i.n	a12, a10, 0
400df85f:	0df9      	s32i.n	a15, a13, 0
400df861:	022ce6        	bgei	a12, 2, 400df867 <_ZN6tflite12_GLOBAL__N_1L4EvalEP13TfLiteContextP10TfLiteNode+0x18ab>
400df864:	f9ee06        	j	400de020 <_ZN6tflite12_GLOBAL__N_1L4EvalEP13TfLiteContextP10TfLiteNode+0x64>
400df867:	5ca442        	movi	a4, 0x45c
400df86a:	441a      	add.n	a4, a4, a1
400df86c:	2a68      	l32i.n	a6, a10, 8
400df86e:	0469      	s32i.n	a6, a4, 0
400df870:	022c66        	bnei	a12, 2, 400df876 <_ZN6tflite12_GLOBAL__N_1L4EvalEP13TfLiteContextP10TfLiteNode+0x18ba>
400df873:	f9ea46        	j	400de020 <_ZN6tflite12_GLOBAL__N_1L4EvalEP13TfLiteContextP10TfLiteNode+0x64>
400df876:	60a482        	movi	a8, 0x460
400df879:	881a      	add.n	a8, a8, a1
400df87b:	3ad8      	l32i.n	a13, a10, 12
400df87d:	6922b2        	l32i	a11, a2, 0x1a4
400df880:	08d9      	s32i.n	a13, a8, 0
400df882:	022be6        	bgei	a11, 2, 400df888 <_ZN6tflite12_GLOBAL__N_1L4EvalEP13TfLiteContextP10TfLiteNode+0x18cc>
400df885:	f9e5c6        	j	400de020 <_ZN6tflite12_GLOBAL__N_1L4EvalEP13TfLiteContextP10TfLiteNode+0x64>
400df888:	30a4f2        	movi	a15, 0x430
400df88b:	ff1a      	add.n	a15, a15, a1
400df88d:	6b2242        	l32i	a4, a2, 0x1ac
400df890:	0f49      	s32i.n	a4, a15, 0
400df892:	022b66        	bnei	a11, 2, 400df898 <_ZN6tflite12_GLOBAL__N_1L4EvalEP13TfLiteContextP10TfLiteNode+0x18dc>
400df895:	f9e1c6        	j	400de020 <_ZN6tflite12_GLOBAL__N_1L4EvalEP13TfLiteContextP10TfLiteNode+0x64>
400df898:	38a462        	movi	a6, 0x438
400df89b:	661a      	add.n	a6, a6, a1
400df89d:	3ca4d2        	movi	a13, 0x43c
400df8a0:	b588      	l32i.n	a8, a5, 44
400df8a2:	34a442        	movi	a4, 0x434
400df8a5:	dd1a      	add.n	a13, a13, a1
400df8a7:	441a      	add.n	a4, a4, a1
400df8a9:	c5f8      	l32i.n	a15, a5, 48
400df8ab:	0689      	s32i.n	a8, a6, 0
400df8ad:	6c2262        	l32i	a6, a2, 0x1b0
400df8b0:	0df9      	s32i.n	a15, a13, 0
400df8b2:	0469      	s32i.n	a6, a4, 0
400df8b4:	02af87        	bge	a15, a8, 400df8ba <_ZN6tflite12_GLOBAL__N_1L4EvalEP13TfLiteContextP10TfLiteNode+0x18fe>
400df8b7:	f9d946        	j	400de020 <_ZN6tflite12_GLOBAL__N_1L4EvalEP13TfLiteContextP10TfLiteNode+0x64>
400df8ba:	024e26        	beqi	a14, 4, 400df8c0 <_ZN6tflite12_GLOBAL__N_1L4EvalEP13TfLiteContextP10TfLiteNode+0x1904>
400df8bd:	f9d7c6        	j	400de020 <_ZN6tflite12_GLOBAL__N_1L4EvalEP13TfLiteContextP10TfLiteNode+0x64>
400df8c0:	024c26        	beqi	a12, 4, 400df8c6 <_ZN6tflite12_GLOBAL__N_1L4EvalEP13TfLiteContextP10TfLiteNode+0x190a>
400df8c3:	f9d646        	j	400de020 <_ZN6tflite12_GLOBAL__N_1L4EvalEP13TfLiteContextP10TfLiteNode+0x64>
400df8c6:	024b26        	beqi	a11, 4, 400df8cc <_ZN6tflite12_GLOBAL__N_1L4EvalEP13TfLiteContextP10TfLiteNode+0x1910>
400df8c9:	f9d4c6        	j	400de020 <_ZN6tflite12_GLOBAL__N_1L4EvalEP13TfLiteContextP10TfLiteNode+0x64>
400df8cc:	712262        	l32i	a6, a2, 0x1c4
400df8cf:	6a22b2        	l32i	a11, a2, 0x1a8
400df8d2:	021b67        	beq	a11, a6, 400df8d8 <_ZN6tflite12_GLOBAL__N_1L4EvalEP13TfLiteContextP10TfLiteNode+0x191c>
400df8d5:	f9d1c6        	j	400de020 <_ZN6tflite12_GLOBAL__N_1L4EvalEP13TfLiteContextP10TfLiteNode+0x64>
400df8d8:	7422d2        	l32i	a13, a2, 0x1d0
400df8db:	4a98      	l32i.n	a9, a10, 16
400df8dd:	0219d7        	beq	a9, a13, 400df8e3 <_ZN6tflite12_GLOBAL__N_1L4EvalEP13TfLiteContextP10TfLiteNode+0x1927>
400df8e0:	f9cf06        	j	400de020 <_ZN6tflite12_GLOBAL__N_1L4EvalEP13TfLiteContextP10TfLiteNode+0x64>
400df8e3:	782242        	l32i	a4, a2, 0x1e0
400df8e6:	6d22a2        	l32i	a10, a2, 0x1b4
400df8e9:	021a47        	beq	a10, a4, 400df8ef <_ZN6tflite12_GLOBAL__N_1L4EvalEP13TfLiteContextP10TfLiteNode+0x1933>
400df8ec:	f9cc06        	j	400de020 <_ZN6tflite12_GLOBAL__N_1L4EvalEP13TfLiteContextP10TfLiteNode+0x64>
400df8ef:	13cc      	bnez.n	a3, 400df8f4 <_ZN6tflite12_GLOBAL__N_1L4EvalEP13TfLiteContextP10TfLiteNode+0x1938>
400df8f1:	f9cac6        	j	400de020 <_ZN6tflite12_GLOBAL__N_1L4EvalEP13TfLiteContextP10TfLiteNode+0x64>
400df8f4:	03a8      	l32i.n	a10, a3, 0
400df8f6:	caac      	beqz.n	a10, 400df926 <_ZN6tflite12_GLOBAL__N_1L4EvalEP13TfLiteContextP10TfLiteNode+0x196a>
400df8f8:	622292        	l32i	a9, a2, 0x188
400df8fb:	1f19a6        	blti	a9, 1, 400df91e <_ZN6tflite12_GLOBAL__N_1L4EvalEP13TfLiteContextP10TfLiteNode+0x1962>
400df8fe:	1199e0        	slli	a9, a9, 2
400df901:	fcc992        	addi	a9, a9, -4
400df904:	419290        	srli	a9, a9, 2
400df907:	88a1a2        	movi	a10, 0x188
400df90a:	1b0c      	movi.n	a11, 1
400df90c:	a2aa      	add.n	a10, a2, a10
400df90e:	8099b0        	add	a9, a9, a11
400df911:	068976        	loop	a9, 400df91b <_ZN6tflite12_GLOBAL__N_1L4EvalEP13TfLiteContextP10TfLiteNode+0x195f>
400df914:	1a88      	l32i.n	a8, a10, 4
400df916:	aa4b      	addi.n	a10, a10, 4
400df918:	82bb80        	mull	a11, a11, a8
400df91b:	000046        	j	400df920 <_ZN6tflite12_GLOBAL__N_1L4EvalEP13TfLiteContextP10TfLiteNode+0x1964>
400df91e:	1b0c      	movi.n	a11, 1
400df920:	021b47        	beq	a11, a4, 400df926 <_ZN6tflite12_GLOBAL__N_1L4EvalEP13TfLiteContextP10TfLiteNode+0x196a>
400df923:	f9be46        	j	400de020 <_ZN6tflite12_GLOBAL__N_1L4EvalEP13TfLiteContextP10TfLiteNode+0x64>
400df926:	e5b8      	l32i.n	a11, a5, 56
400df928:	0a0c      	movi.n	a10, 0
400df92a:	01ab96        	bltz	a11, 400df948 <_ZN6tflite12_GLOBAL__N_1L4EvalEP13TfLiteContextP10TfLiteNode+0x198c>
400df92d:	24a492        	movi	a9, 0x424
400df930:	991a      	add.n	a9, a9, a1
400df932:	09a8      	l32i.n	a10, a9, 0
400df934:	18a5e2        	movi	a14, 0x518
400df937:	ee1a      	add.n	a14, a14, a1
400df939:	112a92        	l32i	a9, a10, 68
400df93c:	0ed9      	s32i.n	a13, a14, 0
400df93e:	0009e0        	callx8	a9
400df941:	18a5f2        	movi	a15, 0x518
400df944:	ff1a      	add.n	a15, a15, a1
400df946:	0fd8      	l32i.n	a13, a15, 0
400df948:	18a582        	movi	a8, 0x518
400df94b:	808810        	add	a8, a8, a1
400df94e:	0068d2        	s32i	a13, a8, 0
400df951:	22bfa5        	call8	4010254c <esp_nn_set_conv_scratch_buf_opt>
400df954:	28a4b2        	movi	a11, 0x428
400df957:	80bb10        	add	a11, a11, a1
400df95a:	68a482        	movi	a8, 0x468
400df95d:	0bc8      	l32i.n	a12, a11, 0
400df95f:	2ca4b2        	movi	a11, 0x42c
400df962:	bb1a      	add.n	a11, a11, a1
400df964:	881a      	add.n	a8, a8, a1
400df966:	1a0c      	movi.n	a10, 1
400df968:	0bb8      	l32i.n	a11, a11, 0
400df96a:	090c      	movi.n	a9, 0
400df96c:	82ecb0        	mull	a14, a12, a11
400df96f:	30a4c2        	movi	a12, 0x430
400df972:	cc1a      	add.n	a12, a12, a1
400df974:	0cf8      	l32i.n	a15, a12, 0
400df976:	34a4c2        	movi	a12, 0x434
400df979:	cc1a      	add.n	a12, a12, a1
400df97b:	0cc8      	l32i.n	a12, a12, 0
400df97d:	82bfc0        	mull	a11, a15, a12
400df980:	2ca4f2        	movi	a15, 0x42c
400df983:	ff1a      	add.n	a15, a15, a1
400df985:	95c8      	l32i.n	a12, a5, 36
400df987:	08c9      	s32i.n	a12, a8, 0
400df989:	18a582        	movi	a8, 0x518
400df98c:	881a      	add.n	a8, a8, a1
400df98e:	24a4c2        	movi	a12, 0x424
400df991:	cc1a      	add.n	a12, a12, a1
400df993:	08d8      	l32i.n	a13, a8, 0
400df995:	828ed0        	mull	a8, a14, a13
400df998:	82eb40        	mull	a14, a11, a4
400df99b:	0c89      	s32i.n	a8, a12, 0
400df99d:	64a4c2        	movi	a12, 0x464
400df9a0:	cc1a      	add.n	a12, a12, a1
400df9a2:	34a482        	movi	a8, 0x434
400df9a5:	881a      	add.n	a8, a8, a1
400df9a7:	a5b8      	l32i.n	a11, a5, 40
400df9a9:	28a452        	movi	a5, 0x428
400df9ac:	551a      	add.n	a5, a5, a1
400df9ae:	0ce9      	s32i.n	a14, a12, 0
400df9b0:	60a4c2        	movi	a12, 0x460
400df9b3:	44a4e2        	movi	a14, 0x444
400df9b6:	cc1a      	add.n	a12, a12, a1
400df9b8:	ee1a      	add.n	a14, a14, a1
400df9ba:	0ff8      	l32i.n	a15, a15, 0
400df9bc:	3d61a2        	s32i	a10, a1, 244
400df9bf:	3c61d2        	s32i	a13, a1, 240
400df9c2:	5ca4d2        	movi	a13, 0x45c
400df9c5:	dd1a      	add.n	a13, a13, a1
400df9c7:	2f61a2        	s32i	a10, a1, 188
400df9ca:	30a4a2        	movi	a10, 0x430
400df9cd:	aa1a      	add.n	a10, a10, a1
400df9cf:	0558      	l32i.n	a5, a5, 0
400df9d1:	0888      	l32i.n	a8, a8, 0
400df9d3:	0aa8      	l32i.n	a10, a10, 0
400df9d5:	0cc8      	l32i.n	a12, a12, 0
400df9d7:	0dd8      	l32i.n	a13, a13, 0
400df9d9:	0ee8      	l32i.n	a14, a14, 0
400df9db:	3a61f2        	s32i	a15, a1, 232
400df9de:	48a4f2        	movi	a15, 0x448
400df9e1:	ff1a      	add.n	a15, a15, a1
400df9e3:	106292        	s32i	a9, a2, 64
400df9e6:	116292        	s32i	a9, a2, 68
400df9e9:	3b6152        	s32i	a5, a1, 236
400df9ec:	50a452        	movi	a5, 0x450
400df9ef:	551a      	add.n	a5, a5, a1
400df9f1:	2c6182        	s32i	a8, a1, 176
400df9f4:	54a482        	movi	a8, 0x454
400df9f7:	881a      	add.n	a8, a8, a1
400df9f9:	2d61a2        	s32i	a10, a1, 180
400df9fc:	58a4a2        	movi	a10, 0x458
400df9ff:	aa1a      	add.n	a10, a10, a1
400dfa01:	2e6142        	s32i	a4, a1, 184
400dfa04:	4ca442        	movi	a4, 0x44c
400dfa07:	441a      	add.n	a4, a4, a1
400dfa09:	1e61c2        	s32i	a12, a1, 120
400dfa0c:	38a4c2        	movi	a12, 0x438
400dfa0f:	cc1a      	add.n	a12, a12, a1
400dfa11:	1f61d2        	s32i	a13, a1, 124
400dfa14:	3ca4d2        	movi	a13, 0x43c
400dfa17:	dd1a      	add.n	a13, a13, a1
400dfa19:	1061e2        	s32i	a14, a1, 64
400dfa1c:	68a4e2        	movi	a14, 0x468
400dfa1f:	ee1a      	add.n	a14, a14, a1
400dfa21:	0ff8      	l32i.n	a15, a15, 0
400dfa23:	166192        	s32i	a9, a1, 88
400dfa26:	1161f2        	s32i	a15, a1, 68
400dfa29:	0448      	l32i.n	a4, a4, 0
400dfa2b:	0558      	l32i.n	a5, a5, 0
400dfa2d:	0888      	l32i.n	a8, a8, 0
400dfa2f:	0aa8      	l32i.n	a10, a10, 0
400dfa31:	0cc8      	l32i.n	a12, a12, 0
400dfa33:	0dd8      	l32i.n	a13, a13, 0
400dfa35:	0ee8      	l32i.n	a14, a14, 0
400dfa37:	126142        	s32i	a4, a1, 72
400dfa3a:	136152        	s32i	a5, a1, 76
400dfa3d:	146182        	s32i	a8, a1, 80
400dfa40:	1561a2        	s32i	a10, a1, 84
400dfa43:	1861c2        	s32i	a12, a1, 96
400dfa46:	1961d2        	s32i	a13, a1, 100
400dfa49:	4861b2        	s32i	a11, a1, 0x120
400dfa4c:	4961e2        	s32i	a14, a1, 0x124
400dfa4f:	176192        	s32i	a9, a1, 92
400dfa52:	0216e6        	bgei	a6, 1, 400dfa58 <_ZN6tflite12_GLOBAL__N_1L4EvalEP13TfLiteContextP10TfLiteNode+0x1a9c>
400dfa55:	005e06        	j	400dfbd1 <_ZN6tflite12_GLOBAL__N_1L4EvalEP13TfLiteContextP10TfLiteNode+0x1c15>
400dfa58:	28a482        	movi	a8, 0x428
400dfa5b:	881a      	add.n	a8, a8, a1
400dfa5d:	40a4f2        	movi	a15, 0x440
400dfa60:	095d      	mov.n	a5, a9
400dfa62:	70c292        	addi	a9, a2, 112
400dfa65:	ff1a      	add.n	a15, a15, a1
400dfa67:	0899      	s32i.n	a9, a8, 0
400dfa69:	2ca4a2        	movi	a10, 0x42c
400dfa6c:	a8a082        	movi	a8, 168
400dfa6f:	b28a      	add.n	a11, a2, a8
400dfa71:	aa1a      	add.n	a10, a10, a1
400dfa73:	e0a082        	movi	a8, 224
400dfa76:	0f48      	l32i.n	a4, a15, 0
400dfa78:	828a      	add.n	a8, a2, a8
400dfa7a:	0ab9      	s32i.n	a11, a10, 0
400dfa7c:	28a4c2        	movi	a12, 0x428
400dfa7f:	20a4d2        	movi	a13, 0x420
400dfa82:	2ca4e2        	movi	a14, 0x42c
400dfa85:	80cc10        	add	a12, a12, a1
400dfa88:	026182        	s32i	a8, a1, 8
400dfa8b:	80dd10        	add	a13, a13, a1
400dfa8e:	ee1a      	add.n	a14, a14, a1
400dfa90:	18a592        	movi	a9, 0x518
400dfa93:	991a      	add.n	a9, a9, a1
400dfa95:	0db8      	l32i.n	a11, a13, 0
400dfa97:	551b      	addi.n	a5, a5, 1
400dfa99:	0ea8      	l32i.n	a10, a14, 0
400dfa9b:	0cf8      	l32i.n	a15, a12, 0
400dfa9d:	78c1c2        	addi	a12, a1, 120
400dfaa0:	0149      	s32i.n	a4, a1, 0
400dfaa2:	1129      	s32i.n	a2, a1, 4
400dfaa4:	03e8      	l32i.n	a14, a3, 0
400dfaa6:	07d8      	l32i.n	a13, a7, 0
400dfaa8:	0989      	s32i.n	a8, a9, 0
400dfaaa:	08b3e5        	call8	400e85e8 <esp_nn_conv_s8_opt>
400dfaad:	20a4a2        	movi	a10, 0x420
400dfab0:	aa1a      	add.n	a10, a10, a1
400dfab2:	18a5c2        	movi	a12, 0x518
400dfab5:	0ab8      	l32i.n	a11, a10, 0
400dfab7:	24a4a2        	movi	a10, 0x424
400dfaba:	aa1a      	add.n	a10, a10, a1
400dfabc:	cc1a      	add.n	a12, a12, a1
400dfabe:	0aa8      	l32i.n	a10, a10, 0
400dfac0:	bbaa      	add.n	a11, a11, a10
400dfac2:	20a4a2        	movi	a10, 0x420
400dfac5:	aa1a      	add.n	a10, a10, a1
400dfac7:	0ab9      	s32i.n	a11, a10, 0
400dfac9:	64a4b2        	movi	a11, 0x464
400dfacc:	bb1a      	add.n	a11, a11, a1
400dface:	0bb8      	l32i.n	a11, a11, 0
400dfad0:	44ba      	add.n	a4, a4, a11
400dfad2:	0c88      	l32i.n	a8, a12, 0
400dfad4:	a49567        	bne	a5, a6, 400dfa7c <_ZN6tflite12_GLOBAL__N_1L4EvalEP13TfLiteContextP10TfLiteNode+0x1ac0>
400dfad7:	003d86        	j	400dfbd1 <_ZN6tflite12_GLOBAL__N_1L4EvalEP13TfLiteContextP10TfLiteNode+0x1c15>
400dfada:	00          	.byte	00
400dfadb:	00          	.byte	00
400dfadc:	05cd      	mov.n	a12, a5
400dfade:	0dbd      	mov.n	a11, a13
400dfae0:	40c1a2        	addi	a10, a1, 64
400dfae3:	05a3a5        	call8	400e551c <_ZN6tflite19ConvParamsQuantizedERK16TfLiteConvParamsRKNS_10OpDataConvE>
400dfae6:	20a4e2        	movi	a14, 0x420
400dfae9:	9528      	l32i.n	a2, a5, 36
400dfaeb:	24a4f2        	movi	a15, 0x424
400dfaee:	40c1d2        	addi	a13, a1, 64
400dfaf1:	ee1a      	add.n	a14, a14, a1
400dfaf3:	ff1a      	add.n	a15, a15, a1
400dfaf5:	a558      	l32i.n	a5, a5, 40
400dfaf7:	01dd42        	addmi	a4, a13, 0x100
400dfafa:	6cc4a2        	addi	a10, a4, 108
400dfafd:	0eb8      	l32i.n	a11, a14, 0
400dfaff:	0f59      	s32i.n	a5, a15, 0
400dfb01:	20a452        	movi	a5, 0x420
400dfb04:	551a      	add.n	a5, a5, a1
400dfb06:	060825        	call8	400e5b88 <_ZN6tflite5micro14GetTensorShapeEPK16TfLiteEvalTensor>
400dfb09:	07bd      	mov.n	a11, a7
400dfb0b:	0558      	l32i.n	a5, a5, 0
400dfb0d:	50c4a2        	addi	a10, a4, 80
400dfb10:	0588      	l32i.n	a8, a5, 0
400dfb12:	20a452        	movi	a5, 0x420
400dfb15:	551a      	add.n	a5, a5, a1
400dfb17:	006582        	s32i	a8, a5, 0
400dfb1a:	0606e5        	call8	400e5b88 <_ZN6tflite5micro14GetTensorShapeEPK16TfLiteEvalTensor>
400dfb1d:	03bd      	mov.n	a11, a3
400dfb1f:	34c4a2        	addi	a10, a4, 52
400dfb22:	0778      	l32i.n	a7, a7, 0
400dfb24:	060625        	call8	400e5b88 <_ZN6tflite5micro14GetTensorShapeEPK16TfLiteEvalTensor>
400dfb27:	13cc      	bnez.n	a3, 400dfb2c <_ZN6tflite12_GLOBAL__N_1L4EvalEP13TfLiteContextP10TfLiteNode+0x1b70>
400dfb29:	f93cc6        	j	400de020 <_ZN6tflite12_GLOBAL__N_1L4EvalEP13TfLiteContextP10TfLiteNode+0x64>
400dfb2c:	18c4a2        	addi	a10, a4, 24
400dfb2f:	06bd      	mov.n	a11, a6
400dfb31:	002342        	l32i	a4, a3, 0
400dfb34:	060525        	call8	400e5b88 <_ZN6tflite5micro14GetTensorShapeEPK16TfLiteEvalTensor>
400dfb37:	16cc      	bnez.n	a6, 400dfb3c <_ZN6tflite12_GLOBAL__N_1L4EvalEP13TfLiteContextP10TfLiteNode+0x1b80>
400dfb39:	f938c6        	j	400de020 <_ZN6tflite12_GLOBAL__N_1L4EvalEP13TfLiteContextP10TfLiteNode+0x64>
400dfb3c:	24a482        	movi	a8, 0x424
400dfb3f:	881a      	add.n	a8, a8, a1
400dfb41:	0668      	l32i.n	a6, a6, 0
400dfb43:	58a192        	movi	a9, 0x158
400dfb46:	74a1a2        	movi	a10, 0x174
400dfb49:	519a      	add.n	a5, a1, a9
400dfb4b:	91aa      	add.n	a9, a1, a10
400dfb4d:	0888      	l32i.n	a8, a8, 0
400dfb4f:	aca1b2        	movi	a11, 0x1ac
400dfb52:	31ba      	add.n	a3, a1, a11
400dfb54:	4129      	s32i.n	a2, a1, 16
400dfb56:	1b2122        	l32i	a2, a1, 108
400dfb59:	3129      	s32i.n	a2, a1, 12
400dfb5b:	1a2122        	l32i	a2, a1, 104
400dfb5e:	2129      	s32i.n	a2, a1, 8
400dfb60:	172122        	l32i	a2, a1, 92
400dfb63:	a199      	s32i.n	a9, a1, 40
400dfb65:	90a192        	movi	a9, 0x190
400dfb68:	991a      	add.n	a9, a9, a1
400dfb6a:	1129      	s32i.n	a2, a1, 4
400dfb6c:	152122        	l32i	a2, a1, 84
400dfb6f:	b149      	s32i.n	a4, a1, 44
400dfb71:	20a442        	movi	a4, 0x420
400dfb74:	441a      	add.n	a4, a4, a1
400dfb76:	5189      	s32i.n	a8, a1, 20
400dfb78:	0129      	s32i.n	a2, a1, 0
400dfb7a:	d169      	s32i.n	a6, a1, 52
400dfb7c:	c159      	s32i.n	a5, a1, 48
400dfb7e:	9179      	s32i.n	a7, a1, 36
400dfb80:	8199      	s32i.n	a9, a1, 32
400dfb82:	0448      	l32i.n	a4, a4, 0
400dfb84:	2891f2        	l16si	a15, a1, 80
400dfb87:	2791e2        	l16si	a14, a1, 78
400dfb8a:	2691d2        	l16si	a13, a1, 76
400dfb8d:	2591c2        	l16si	a12, a1, 74
400dfb90:	2291b2        	l16si	a11, a1, 68
400dfb93:	2191a2        	l16si	a10, a1, 66
400dfb96:	7149      	s32i.n	a4, a1, 28
400dfb98:	6139      	s32i.n	a3, a1, 24
400dfb9a:	fe06a5        	call8	400ddc04 <_ZN6tflite21reference_integer_ops14ConvPerChannelERKNS_10ConvParamsEPKlS5_RKNS_12RuntimeShapeEPKaS8_SA_S8_S5_S8_Pa$isra$0>
400dfb9d:	000c06        	j	400dfbd1 <_ZN6tflite12_GLOBAL__N_1L4EvalEP13TfLiteContextP10TfLiteNode+0x1c15>
400dfba0:	03fce5        	call8	400e3b70 <TfLiteTypeGetName>
400dfba3:	20baa0        	or	a11, a10, a10
400dfba6:	0227c2        	l32i	a12, a7, 8
400dfba9:	c457a1        	l32r	a10, 400d0d08 <_stext+0xce8> (3f40658c <_flash_rodata_start+0x646c>)
400dfbac:	fd8965        	call8	400dd444 <_Z11MicroPrintfPKcz>
400dfbaf:	01a022        	movi	a2, 1
400dfbb2:	004c86        	j	400dfce8 <_ZN6tflite12_GLOBAL__N_1L4EvalEP13TfLiteContextP10TfLiteNode+0x1d2c>
400dfbb5:	20a452        	movi	a5, 0x420
400dfbb8:	20a990        	or	a10, a9, a9
400dfbbb:	805510        	add	a5, a5, a1
400dfbbe:	03fb25        	call8	400e3b70 <TfLiteTypeGetName>
400dfbc1:	0558      	l32i.n	a5, a5, 0
400dfbc3:	0abd      	mov.n	a11, a10
400dfbc5:	25c8      	l32i.n	a12, a5, 8
400dfbc7:	c451a1        	l32r	a10, 400d0d0c <_stext+0xcec> (3f4065b0 <_flash_rodata_start+0x6490>)
400dfbca:	fd87a5        	call8	400dd444 <_Z11MicroPrintfPKcz>
400dfbcd:	fff786        	j	400dfbaf <_ZN6tflite12_GLOBAL__N_1L4EvalEP13TfLiteContextP10TfLiteNode+0x1bf3>
400dfbd0:	00          	.byte	00
400dfbd1:	0ca562        	movi	a6, 0x50c
400dfbd4:	661a      	add.n	a6, a6, a1
400dfbd6:	a33ce5        	call8	40082fa4 <esp_timer_get_time>
400dfbd9:	0668      	l32i.n	a6, a6, 0
400dfbdb:	0acd      	mov.n	a12, a10
400dfbdd:	c09a60        	sub	a9, a10, a6
400dfbe0:	0b8d      	mov.n	a8, a11
400dfbe2:	1b0c      	movi.n	a11, 1
400dfbe4:	c347a1        	l32r	a10, 400d0900 <_stext+0x8e0> (3ffbb680 <conv_total_time>)
400dfbe7:	013c97        	bltu	a12, a9, 400dfbec <_ZN6tflite12_GLOBAL__N_1L4EvalEP13TfLiteContextP10TfLiteNode+0x1c30>
400dfbea:	0b0c      	movi.n	a11, 0
400dfbec:	10a5c2        	movi	a12, 0x510
400dfbef:	cc1a      	add.n	a12, a12, a1
400dfbf1:	0cc8      	l32i.n	a12, a12, 0
400dfbf3:	c088c0        	sub	a8, a8, a12
400dfbf6:	c088b0        	sub	a8, a8, a11
400dfbf9:	1b0c      	movi.n	a11, 1
400dfbfb:	0ad8      	l32i.n	a13, a10, 0
400dfbfd:	9d9a      	add.n	a9, a13, a9
400dfbff:	1ac8      	l32i.n	a12, a10, 4
400dfc01:	0139d7        	bltu	a9, a13, 400dfc06 <_ZN6tflite12_GLOBAL__N_1L4EvalEP13TfLiteContextP10TfLiteNode+0x1c4a>
400dfc04:	0b0c      	movi.n	a11, 0
400dfc06:	8c8a      	add.n	a8, a12, a8
400dfc08:	bb8a      	add.n	a11, a11, a8
400dfc0a:	0a99      	s32i.n	a9, a10, 0
400dfc0c:	020c      	movi.n	a2, 0
400dfc0e:	1ab9      	s32i.n	a11, a10, 4
400dfc10:	003506        	j	400dfce8 <_ZN6tflite12_GLOBAL__N_1L4EvalEP13TfLiteContextP10TfLiteNode+0x1d2c>
400dfc13:	00          	.byte	00
400dfc14:	0027e2        	l32i	a14, a7, 0
400dfc17:	98a4d2        	movi	a13, 0x498
400dfc1a:	80dd10        	add	a13, a13, a1
400dfc1d:	f4a2a2        	movi	a10, 0x2f4
400dfc20:	20b330        	or	a11, a3, a3
400dfc23:	a2aa      	add.n	a10, a2, a10
400dfc25:	0de9      	s32i.n	a14, a13, 0
400dfc27:	05f625        	call8	400e5b88 <_ZN6tflite5micro14GetTensorShapeEPK16TfLiteEvalTensor>
400dfc2a:	0338      	l32i.n	a3, a3, 0
400dfc2c:	fab946        	j	400de715 <_ZN6tflite12_GLOBAL__N_1L4EvalEP13TfLiteContextP10TfLiteNode+0x759>
400dfc2f:	40c122        	addi	a2, a1, 64
400dfc32:	a8a0a2        	movi	a10, 168
400dfc35:	0dbd      	mov.n	a11, a13
400dfc37:	05cd      	mov.n	a12, a5
400dfc39:	a2aa      	add.n	a10, a2, a10
400dfc3b:	058e25        	call8	400e551c <_ZN6tflite19ConvParamsQuantizedERK16TfLiteConvParamsRKNS_10OpDataConvE>
400dfc3e:	20a4f2        	movi	a15, 0x420
400dfc41:	9598      	l32i.n	a9, a5, 36
400dfc43:	ff1a      	add.n	a15, a15, a1
400dfc45:	90a482        	movi	a8, 0x490
400dfc48:	9ca4c2        	movi	a12, 0x49c
400dfc4b:	03d242        	addmi	a4, a2, 0x300
400dfc4e:	a558      	l32i.n	a5, a5, 40
400dfc50:	881a      	add.n	a8, a8, a1
400dfc52:	cc1a      	add.n	a12, a12, a1
400dfc54:	2cc4a2        	addi	a10, a4, 44
400dfc57:	0fb8      	l32i.n	a11, a15, 0
400dfc59:	0899      	s32i.n	a9, a8, 0
400dfc5b:	0c59      	s32i.n	a5, a12, 0
400dfc5d:	05f2a5        	call8	400e5b88 <_ZN6tflite5micro14GetTensorShapeEPK16TfLiteEvalTensor>
400dfc60:	20a4d2        	movi	a13, 0x420
400dfc63:	dd1a      	add.n	a13, a13, a1
400dfc65:	07bd      	mov.n	a11, a7
400dfc67:	0dd8      	l32i.n	a13, a13, 0
400dfc69:	10c4a2        	addi	a10, a4, 16
400dfc6c:	0de8      	l32i.n	a14, a13, 0
400dfc6e:	94a4d2        	movi	a13, 0x494
400dfc71:	dd1a      	add.n	a13, a13, a1
400dfc73:	0de9      	s32i.n	a14, a13, 0
400dfc75:	05f125        	call8	400e5b88 <_ZN6tflite5micro14GetTensorShapeEPK16TfLiteEvalTensor>
400dfc78:	f98756        	bnez	a7, 400dfc14 <_ZN6tflite12_GLOBAL__N_1L4EvalEP13TfLiteContextP10TfLiteNode+0x1c58>
400dfc7b:	f8e846        	j	400de020 <_ZN6tflite12_GLOBAL__N_1L4EvalEP13TfLiteContextP10TfLiteNode+0x64>
400dfc7e:	002742        	l32i	a4, a7, 0
400dfc81:	98a4f2        	movi	a15, 0x498
400dfc84:	80ff10        	add	a15, a15, a1
400dfc87:	f4a2a2        	movi	a10, 0x2f4
400dfc8a:	20b330        	or	a11, a3, a3
400dfc8d:	a2aa      	add.n	a10, a2, a10
400dfc8f:	0f49      	s32i.n	a4, a15, 0
400dfc91:	05ef65        	call8	400e5b88 <_ZN6tflite5micro14GetTensorShapeEPK16TfLiteEvalTensor>
400dfc94:	fa9f46        	j	400de715 <_ZN6tflite12_GLOBAL__N_1L4EvalEP13TfLiteContextP10TfLiteNode+0x759>
400dfc97:	40c122        	addi	a2, a1, 64
400dfc9a:	a8a0a2        	movi	a10, 168
400dfc9d:	05cd      	mov.n	a12, a5
400dfc9f:	0dbd      	mov.n	a11, a13
400dfca1:	a2aa      	add.n	a10, a2, a10
400dfca3:	0587a5        	call8	400e551c <_ZN6tflite19ConvParamsQuantizedERK16TfLiteConvParamsRKNS_10OpDataConvE>
400dfca6:	20a482        	movi	a8, 0x420
400dfca9:	95c8      	l32i.n	a12, a5, 36
400dfcab:	881a      	add.n	a8, a8, a1
400dfcad:	90a492        	movi	a9, 0x490
400dfcb0:	9ca4d2        	movi	a13, 0x49c
400dfcb3:	03d242        	addmi	a4, a2, 0x300
400dfcb6:	a558      	l32i.n	a5, a5, 40
400dfcb8:	991a      	add.n	a9, a9, a1
400dfcba:	dd1a      	add.n	a13, a13, a1
400dfcbc:	2cc4a2        	addi	a10, a4, 44
400dfcbf:	08b8      	l32i.n	a11, a8, 0
400dfcc1:	09c9      	s32i.n	a12, a9, 0
400dfcc3:	0d59      	s32i.n	a5, a13, 0
400dfcc5:	05ec25        	call8	400e5b88 <_ZN6tflite5micro14GetTensorShapeEPK16TfLiteEvalTensor>
400dfcc8:	20a4e2        	movi	a14, 0x420
400dfccb:	ee1a      	add.n	a14, a14, a1
400dfccd:	07bd      	mov.n	a11, a7
400dfccf:	0ee8      	l32i.n	a14, a14, 0
400dfcd1:	10c4a2        	addi	a10, a4, 16
400dfcd4:	0ef8      	l32i.n	a15, a14, 0
400dfcd6:	94a4e2        	movi	a14, 0x494
400dfcd9:	ee1a      	add.n	a14, a14, a1
400dfcdb:	0ef9      	s32i.n	a15, a14, 0
400dfcdd:	05eaa5        	call8	400e5b88 <_ZN6tflite5micro14GetTensorShapeEPK16TfLiteEvalTensor>
400dfce0:	17cc      	bnez.n	a7, 400dfce5 <_ZN6tflite12_GLOBAL__N_1L4EvalEP13TfLiteContextP10TfLiteNode+0x1d29>
400dfce2:	f8ce86        	j	400de020 <_ZN6tflite12_GLOBAL__N_1L4EvalEP13TfLiteContextP10TfLiteNode+0x64>
400dfce5:	ffe546        	j	400dfc7e <_ZN6tflite12_GLOBAL__N_1L4EvalEP13TfLiteContextP10TfLiteNode+0x1cc2>
400dfce8:	0020c0        	memw
400dfceb:	f01d      	retw.n
400dfced:	000000        	ill
